	.file	"LLVMDialectModule"
	.text
	.globl	"iara_node_wrapper_101_iara_broadcast_tensor<512xi8>_1io_1_1" # -- Begin function iara_node_wrapper_101_iara_broadcast_tensor<512xi8>_1io_1_1
	.p2align	4
	.type	"iara_node_wrapper_101_iara_broadcast_tensor<512xi8>_1io_1_1",@function
"iara_node_wrapper_101_iara_broadcast_tensor<512xi8>_1io_1_1": # @"iara_node_wrapper_101_iara_broadcast_tensor<512xi8>_1io_1_1"
.Lfunc_begin0:
	.file	1 "/scratch/pedro.ciambra/repos/iara/build-sift" "schedule.mlir"
	.loc	1 35041 0                       # schedule.mlir:35041:0
	.cfi_startproc
# %bb.0:
	pushq	%rax
	.cfi_def_cfa_offset 16
	movq	%rsi, %rax
.Ltmp0:
	.loc	1 35044 10 prologue_end         # schedule.mlir:35044:10
	movq	16(%rax), %rdi
	.loc	1 35047 10                      # schedule.mlir:35047:10
	movq	48(%rax), %rsi
	.loc	1 35050 10                      # schedule.mlir:35050:10
	movq	80(%rax), %rdx
	.loc	1 35053 11                      # schedule.mlir:35053:11
	movq	112(%rax), %rcx
	.loc	1 35054 5                       # schedule.mlir:35054:5
	callq	"iara_broadcast_tensor<512xi8>_1io_1_1"@PLT
	.loc	1 35055 5 epilogue_begin        # schedule.mlir:35055:5
	popq	%rax
	.cfi_def_cfa_offset 8
	retq
.Ltmp1:
.Lfunc_end0:
	.size	"iara_node_wrapper_101_iara_broadcast_tensor<512xi8>_1io_1_1", .Lfunc_end0-"iara_node_wrapper_101_iara_broadcast_tensor<512xi8>_1io_1_1"
	.cfi_endproc
                                        # -- End function
	.globl	iara_node_wrapper_102_read_pgm  # -- Begin function iara_node_wrapper_102_read_pgm
	.p2align	4
	.type	iara_node_wrapper_102_read_pgm,@function
iara_node_wrapper_102_read_pgm:         # @iara_node_wrapper_102_read_pgm
.Lfunc_begin1:
	.loc	1 35058 0                       # schedule.mlir:35058:0
	.cfi_startproc
# %bb.0:
	pushq	%rax
	.cfi_def_cfa_offset 16
.Ltmp2:
	.loc	1 35061 10 prologue_end         # schedule.mlir:35061:10
	movq	16(%rsi), %rdi
	.loc	1 35064 10                      # schedule.mlir:35064:10
	movq	48(%rsi), %rsi
	.loc	1 35065 5                       # schedule.mlir:35065:5
	callq	read_pgm@PLT
	.loc	1 35066 5 epilogue_begin        # schedule.mlir:35066:5
	popq	%rax
	.cfi_def_cfa_offset 8
	retq
.Ltmp3:
.Lfunc_end1:
	.size	iara_node_wrapper_102_read_pgm, .Lfunc_end1-iara_node_wrapper_102_read_pgm
	.cfi_endproc
                                        # -- End function
	.globl	"iara_node_wrapper_103_iara_broadcast_tensor<512000xi8>_1io_1" # -- Begin function iara_node_wrapper_103_iara_broadcast_tensor<512000xi8>_1io_1
	.p2align	4
	.type	"iara_node_wrapper_103_iara_broadcast_tensor<512000xi8>_1io_1",@function
"iara_node_wrapper_103_iara_broadcast_tensor<512000xi8>_1io_1": # @"iara_node_wrapper_103_iara_broadcast_tensor<512000xi8>_1io_1"
.Lfunc_begin2:
	.loc	1 35068 0                       # schedule.mlir:35068:0
	.cfi_startproc
# %bb.0:
	pushq	%rax
	.cfi_def_cfa_offset 16
	movq	%rsi, %rax
.Ltmp4:
	.loc	1 35071 10 prologue_end         # schedule.mlir:35071:10
	movq	16(%rax), %rdi
	.loc	1 35074 10                      # schedule.mlir:35074:10
	movq	48(%rax), %rsi
	.loc	1 35077 10                      # schedule.mlir:35077:10
	movq	80(%rax), %rdx
	.loc	1 35078 5                       # schedule.mlir:35078:5
	callq	"iara_broadcast_tensor<512000xi8>_1io_1"@PLT
	.loc	1 35079 5 epilogue_begin        # schedule.mlir:35079:5
	popq	%rax
	.cfi_def_cfa_offset 8
	retq
.Ltmp5:
.Lfunc_end2:
	.size	"iara_node_wrapper_103_iara_broadcast_tensor<512000xi8>_1io_1", .Lfunc_end2-"iara_node_wrapper_103_iara_broadcast_tensor<512000xi8>_1io_1"
	.cfi_endproc
                                        # -- End function
	.globl	iara_node_wrapper_104_draw_keypoints_to_ppm_file # -- Begin function iara_node_wrapper_104_draw_keypoints_to_ppm_file
	.p2align	4
	.type	iara_node_wrapper_104_draw_keypoints_to_ppm_file,@function
iara_node_wrapper_104_draw_keypoints_to_ppm_file: # @iara_node_wrapper_104_draw_keypoints_to_ppm_file
.Lfunc_begin3:
	.loc	1 35081 0                       # schedule.mlir:35081:0
	.cfi_startproc
# %bb.0:
	pushq	%rax
	.cfi_def_cfa_offset 16
	movq	%rsi, %rax
.Ltmp6:
	.loc	1 35084 10 prologue_end         # schedule.mlir:35084:10
	movq	16(%rax), %rdi
	.loc	1 35087 10                      # schedule.mlir:35087:10
	movq	48(%rax), %rsi
	.loc	1 35090 10                      # schedule.mlir:35090:10
	movq	80(%rax), %rdx
	.loc	1 35093 11                      # schedule.mlir:35093:11
	movq	112(%rax), %rcx
	.loc	1 35094 5                       # schedule.mlir:35094:5
	callq	draw_keypoints_to_ppm_file@PLT
	.loc	1 35095 5 epilogue_begin        # schedule.mlir:35095:5
	popq	%rax
	.cfi_def_cfa_offset 8
	retq
.Ltmp7:
.Lfunc_end3:
	.size	iara_node_wrapper_104_draw_keypoints_to_ppm_file, .Lfunc_end3-iara_node_wrapper_104_draw_keypoints_to_ppm_file
	.cfi_endproc
                                        # -- End function
	.globl	iara_node_wrapper_105_compute_gaussian_coefs # -- Begin function iara_node_wrapper_105_compute_gaussian_coefs
	.p2align	4
	.type	iara_node_wrapper_105_compute_gaussian_coefs,@function
iara_node_wrapper_105_compute_gaussian_coefs: # @iara_node_wrapper_105_compute_gaussian_coefs
.Lfunc_begin4:
	.loc	1 35097 0                       # schedule.mlir:35097:0
	.cfi_startproc
# %bb.0:
	pushq	%rax
	.cfi_def_cfa_offset 16
.Ltmp8:
	.loc	1 35100 10 prologue_end         # schedule.mlir:35100:10
	movq	16(%rsi), %rdi
	.loc	1 35103 10                      # schedule.mlir:35103:10
	movq	48(%rsi), %rsi
	.loc	1 35104 5                       # schedule.mlir:35104:5
	callq	compute_gaussian_coefs@PLT
	.loc	1 35105 5 epilogue_begin        # schedule.mlir:35105:5
	popq	%rax
	.cfi_def_cfa_offset 8
	retq
.Ltmp9:
.Lfunc_end4:
	.size	iara_node_wrapper_105_compute_gaussian_coefs, .Lfunc_end4-iara_node_wrapper_105_compute_gaussian_coefs
	.cfi_endproc
                                        # -- End function
	.globl	iara_node_wrapper_106_extract_descriptor # -- Begin function iara_node_wrapper_106_extract_descriptor
	.p2align	4
	.type	iara_node_wrapper_106_extract_descriptor,@function
iara_node_wrapper_106_extract_descriptor: # @iara_node_wrapper_106_extract_descriptor
.Lfunc_begin5:
	.loc	1 35107 0                       # schedule.mlir:35107:0
	.cfi_startproc
# %bb.0:
	pushq	%rax
	.cfi_def_cfa_offset 16
	movq	%rsi, %rax
.Ltmp10:
	.loc	1 35110 10 prologue_end         # schedule.mlir:35110:10
	movq	16(%rax), %rdi
	.loc	1 35113 10                      # schedule.mlir:35113:10
	movq	48(%rax), %rsi
	.loc	1 35116 10                      # schedule.mlir:35116:10
	movq	80(%rax), %rdx
	.loc	1 35119 11                      # schedule.mlir:35119:11
	movq	112(%rax), %rcx
	.loc	1 35120 5                       # schedule.mlir:35120:5
	callq	extract_descriptor@PLT
	.loc	1 35121 5 epilogue_begin        # schedule.mlir:35121:5
	popq	%rax
	.cfi_def_cfa_offset 8
	retq
.Ltmp11:
.Lfunc_end5:
	.size	iara_node_wrapper_106_extract_descriptor, .Lfunc_end5-iara_node_wrapper_106_extract_descriptor
	.cfi_endproc
                                        # -- End function
	.globl	iara_node_wrapper_107_detect_keypoints # -- Begin function iara_node_wrapper_107_detect_keypoints
	.p2align	4
	.type	iara_node_wrapper_107_detect_keypoints,@function
iara_node_wrapper_107_detect_keypoints: # @iara_node_wrapper_107_detect_keypoints
.Lfunc_begin6:
	.loc	1 35123 0                       # schedule.mlir:35123:0
	.cfi_startproc
# %bb.0:
	pushq	%r15
	.cfi_def_cfa_offset 16
	pushq	%r14
	.cfi_def_cfa_offset 24
	pushq	%rbx
	.cfi_def_cfa_offset 32
	subq	$48, %rsp
	.cfi_def_cfa_offset 80
	.cfi_offset %rbx, -32
	.cfi_offset %r14, -24
	.cfi_offset %r15, -16
	movq	%rsi, %rax
.Ltmp12:
	.loc	1 35126 10 prologue_end         # schedule.mlir:35126:10
	movq	16(%rax), %rdi
	.loc	1 35129 10                      # schedule.mlir:35129:10
	movq	48(%rax), %rsi
	.loc	1 35132 10                      # schedule.mlir:35132:10
	movq	80(%rax), %rdx
	.loc	1 35135 11                      # schedule.mlir:35135:11
	movq	112(%rax), %rcx
	.loc	1 35138 11                      # schedule.mlir:35138:11
	movq	144(%rax), %r8
	.loc	1 35141 11                      # schedule.mlir:35141:11
	movq	176(%rax), %r9
	.loc	1 35144 11                      # schedule.mlir:35144:11
	movq	208(%rax), %r15
	.loc	1 35147 11                      # schedule.mlir:35147:11
	movq	240(%rax), %r14
	.loc	1 35150 11                      # schedule.mlir:35150:11
	movq	272(%rax), %rbx
	.loc	1 35153 11                      # schedule.mlir:35153:11
	movq	304(%rax), %r11
	.loc	1 35156 11                      # schedule.mlir:35156:11
	movq	336(%rax), %r10
	.loc	1 35159 11                      # schedule.mlir:35159:11
	movq	368(%rax), %rax
	.loc	1 35160 5                       # schedule.mlir:35160:5
	movq	%r15, (%rsp)
	movq	%r14, 8(%rsp)
	movq	%rbx, 16(%rsp)
	movq	%r11, 24(%rsp)
	movq	%r10, 32(%rsp)
	movq	%rax, 40(%rsp)
	callq	detect_keypoints@PLT
	.loc	1 35161 5 epilogue_begin        # schedule.mlir:35161:5
	addq	$48, %rsp
	.cfi_def_cfa_offset 32
	popq	%rbx
	.cfi_def_cfa_offset 24
	popq	%r14
	.cfi_def_cfa_offset 16
	popq	%r15
	.cfi_def_cfa_offset 8
	retq
.Ltmp13:
.Lfunc_end6:
	.size	iara_node_wrapper_107_detect_keypoints, .Lfunc_end6-iara_node_wrapper_107_detect_keypoints
	.cfi_endproc
                                        # -- End function
	.globl	iara_node_wrapper_108_ITERATOR_detect_keypoints # -- Begin function iara_node_wrapper_108_ITERATOR_detect_keypoints
	.p2align	4
	.type	iara_node_wrapper_108_ITERATOR_detect_keypoints,@function
iara_node_wrapper_108_ITERATOR_detect_keypoints: # @iara_node_wrapper_108_ITERATOR_detect_keypoints
.Lfunc_begin7:
	.loc	1 35163 0                       # schedule.mlir:35163:0
	.cfi_startproc
# %bb.0:
	subq	$24, %rsp
	.cfi_def_cfa_offset 32
	movq	%rsi, %rax
.Ltmp14:
	.loc	1 35166 10 prologue_end         # schedule.mlir:35166:10
	movq	16(%rax), %rdi
	.loc	1 35169 10                      # schedule.mlir:35169:10
	movq	48(%rax), %rsi
	.loc	1 35172 10                      # schedule.mlir:35172:10
	movq	80(%rax), %rdx
	.loc	1 35175 11                      # schedule.mlir:35175:11
	movq	112(%rax), %rcx
	.loc	1 35178 11                      # schedule.mlir:35178:11
	movq	144(%rax), %r8
	.loc	1 35181 11                      # schedule.mlir:35181:11
	movq	176(%rax), %r9
	.loc	1 35184 11                      # schedule.mlir:35184:11
	movq	208(%rax), %r10
	.loc	1 35187 11                      # schedule.mlir:35187:11
	movq	240(%rax), %rax
	.loc	1 35188 5                       # schedule.mlir:35188:5
	movq	%r10, (%rsp)
	movq	%rax, 8(%rsp)
	callq	ITERATOR_detect_keypoints@PLT
	.loc	1 35189 5 epilogue_begin        # schedule.mlir:35189:5
	addq	$24, %rsp
	.cfi_def_cfa_offset 8
	retq
.Ltmp15:
.Lfunc_end7:
	.size	iara_node_wrapper_108_ITERATOR_detect_keypoints, .Lfunc_end7-iara_node_wrapper_108_ITERATOR_detect_keypoints
	.cfi_endproc
                                        # -- End function
	.globl	"iara_node_wrapper_109_iara_broadcast_tensor<8191500xf32>_4_4" # -- Begin function iara_node_wrapper_109_iara_broadcast_tensor<8191500xf32>_4_4
	.p2align	4
	.type	"iara_node_wrapper_109_iara_broadcast_tensor<8191500xf32>_4_4",@function
"iara_node_wrapper_109_iara_broadcast_tensor<8191500xf32>_4_4": # @"iara_node_wrapper_109_iara_broadcast_tensor<8191500xf32>_4_4"
.Lfunc_begin8:
	.loc	1 35191 0                       # schedule.mlir:35191:0
	.cfi_startproc
# %bb.0:
	pushq	%rax
	.cfi_def_cfa_offset 16
	movq	%rsi, %rax
.Ltmp16:
	.loc	1 35194 10 prologue_end         # schedule.mlir:35194:10
	movq	16(%rax), %rdi
	.loc	1 35197 10                      # schedule.mlir:35197:10
	movq	48(%rax), %rsi
	.loc	1 35200 10                      # schedule.mlir:35200:10
	movq	80(%rax), %rdx
	.loc	1 35201 5                       # schedule.mlir:35201:5
	callq	"iara_broadcast_tensor<8191500xf32>_4_4"@PLT
	.loc	1 35202 5 epilogue_begin        # schedule.mlir:35202:5
	popq	%rax
	.cfi_def_cfa_offset 8
	retq
.Ltmp17:
.Lfunc_end8:
	.size	"iara_node_wrapper_109_iara_broadcast_tensor<8191500xf32>_4_4", .Lfunc_end8-"iara_node_wrapper_109_iara_broadcast_tensor<8191500xf32>_4_4"
	.cfi_endproc
                                        # -- End function
	.globl	"iara_node_wrapper_110_iara_broadcast_tensor<8191500xf32>_4_4" # -- Begin function iara_node_wrapper_110_iara_broadcast_tensor<8191500xf32>_4_4
	.p2align	4
	.type	"iara_node_wrapper_110_iara_broadcast_tensor<8191500xf32>_4_4",@function
"iara_node_wrapper_110_iara_broadcast_tensor<8191500xf32>_4_4": # @"iara_node_wrapper_110_iara_broadcast_tensor<8191500xf32>_4_4"
.Lfunc_begin9:
	.loc	1 35204 0                       # schedule.mlir:35204:0
	.cfi_startproc
# %bb.0:
	pushq	%rax
	.cfi_def_cfa_offset 16
	movq	%rsi, %rax
.Ltmp18:
	.loc	1 35207 10 prologue_end         # schedule.mlir:35207:10
	movq	16(%rax), %rdi
	.loc	1 35210 10                      # schedule.mlir:35210:10
	movq	48(%rax), %rsi
	.loc	1 35213 10                      # schedule.mlir:35213:10
	movq	80(%rax), %rdx
	.loc	1 35214 5                       # schedule.mlir:35214:5
	callq	"iara_broadcast_tensor<8191500xf32>_4_4"@PLT
	.loc	1 35215 5 epilogue_begin        # schedule.mlir:35215:5
	popq	%rax
	.cfi_def_cfa_offset 8
	retq
.Ltmp19:
.Lfunc_end9:
	.size	"iara_node_wrapper_110_iara_broadcast_tensor<8191500xf32>_4_4", .Lfunc_end9-"iara_node_wrapper_110_iara_broadcast_tensor<8191500xf32>_4_4"
	.cfi_endproc
                                        # -- End function
	.globl	iara_node_wrapper_111_build_dog_pyr # -- Begin function iara_node_wrapper_111_build_dog_pyr
	.p2align	4
	.type	iara_node_wrapper_111_build_dog_pyr,@function
iara_node_wrapper_111_build_dog_pyr:    # @iara_node_wrapper_111_build_dog_pyr
.Lfunc_begin10:
	.loc	1 35217 0                       # schedule.mlir:35217:0
	.cfi_startproc
# %bb.0:
	pushq	%rbx
	.cfi_def_cfa_offset 16
	subq	$32, %rsp
	.cfi_def_cfa_offset 48
	.cfi_offset %rbx, -16
	movq	%rsi, %rax
.Ltmp20:
	.loc	1 35220 10 prologue_end         # schedule.mlir:35220:10
	movq	16(%rax), %rdi
	.loc	1 35223 10                      # schedule.mlir:35223:10
	movq	48(%rax), %rsi
	.loc	1 35226 10                      # schedule.mlir:35226:10
	movq	80(%rax), %rdx
	.loc	1 35229 11                      # schedule.mlir:35229:11
	movq	112(%rax), %rcx
	.loc	1 35232 11                      # schedule.mlir:35232:11
	movq	144(%rax), %r8
	.loc	1 35235 11                      # schedule.mlir:35235:11
	movq	176(%rax), %r9
	.loc	1 35238 11                      # schedule.mlir:35238:11
	movq	208(%rax), %rbx
	.loc	1 35241 11                      # schedule.mlir:35241:11
	movq	240(%rax), %r11
	.loc	1 35244 11                      # schedule.mlir:35244:11
	movq	272(%rax), %r10
	.loc	1 35247 11                      # schedule.mlir:35247:11
	movq	304(%rax), %rax
	.loc	1 35248 5                       # schedule.mlir:35248:5
	movq	%rbx, (%rsp)
	movq	%r11, 8(%rsp)
	movq	%r10, 16(%rsp)
	movq	%rax, 24(%rsp)
	callq	build_dog_pyr@PLT
	.loc	1 35249 5 epilogue_begin        # schedule.mlir:35249:5
	addq	$32, %rsp
	.cfi_def_cfa_offset 16
	popq	%rbx
	.cfi_def_cfa_offset 8
	retq
.Ltmp21:
.Lfunc_end10:
	.size	iara_node_wrapper_111_build_dog_pyr, .Lfunc_end10-iara_node_wrapper_111_build_dog_pyr
	.cfi_endproc
                                        # -- End function
	.globl	iara_node_wrapper_112_ITERATOR_build_dog_pyr # -- Begin function iara_node_wrapper_112_ITERATOR_build_dog_pyr
	.p2align	4
	.type	iara_node_wrapper_112_ITERATOR_build_dog_pyr,@function
iara_node_wrapper_112_ITERATOR_build_dog_pyr: # @iara_node_wrapper_112_ITERATOR_build_dog_pyr
.Lfunc_begin11:
	.loc	1 35251 0                       # schedule.mlir:35251:0
	.cfi_startproc
# %bb.0:
	subq	$24, %rsp
	.cfi_def_cfa_offset 32
	movq	%rsi, %rax
.Ltmp22:
	.loc	1 35254 10 prologue_end         # schedule.mlir:35254:10
	movq	16(%rax), %rdi
	.loc	1 35257 10                      # schedule.mlir:35257:10
	movq	48(%rax), %rsi
	.loc	1 35260 10                      # schedule.mlir:35260:10
	movq	80(%rax), %rdx
	.loc	1 35263 11                      # schedule.mlir:35263:11
	movq	112(%rax), %rcx
	.loc	1 35266 11                      # schedule.mlir:35266:11
	movq	144(%rax), %r8
	.loc	1 35269 11                      # schedule.mlir:35269:11
	movq	176(%rax), %r9
	.loc	1 35272 11                      # schedule.mlir:35272:11
	movq	208(%rax), %r10
	.loc	1 35275 11                      # schedule.mlir:35275:11
	movq	240(%rax), %rax
	.loc	1 35276 5                       # schedule.mlir:35276:5
	movq	%r10, (%rsp)
	movq	%rax, 8(%rsp)
	callq	ITERATOR_build_dog_pyr@PLT
	.loc	1 35277 5 epilogue_begin        # schedule.mlir:35277:5
	addq	$24, %rsp
	.cfi_def_cfa_offset 8
	retq
.Ltmp23:
.Lfunc_end11:
	.size	iara_node_wrapper_112_ITERATOR_build_dog_pyr, .Lfunc_end11-iara_node_wrapper_112_ITERATOR_build_dog_pyr
	.cfi_endproc
                                        # -- End function
	.globl	iara_node_wrapper_113_build_grd_rot_pyr # -- Begin function iara_node_wrapper_113_build_grd_rot_pyr
	.p2align	4
	.type	iara_node_wrapper_113_build_grd_rot_pyr,@function
iara_node_wrapper_113_build_grd_rot_pyr: # @iara_node_wrapper_113_build_grd_rot_pyr
.Lfunc_begin12:
	.loc	1 35279 0                       # schedule.mlir:35279:0
	.cfi_startproc
# %bb.0:
	pushq	%r14
	.cfi_def_cfa_offset 16
	pushq	%rbx
	.cfi_def_cfa_offset 24
	subq	$40, %rsp
	.cfi_def_cfa_offset 64
	.cfi_offset %rbx, -24
	.cfi_offset %r14, -16
	movq	%rsi, %rax
.Ltmp24:
	.loc	1 35282 10 prologue_end         # schedule.mlir:35282:10
	movq	16(%rax), %rdi
	.loc	1 35285 10                      # schedule.mlir:35285:10
	movq	48(%rax), %rsi
	.loc	1 35288 10                      # schedule.mlir:35288:10
	movq	80(%rax), %rdx
	.loc	1 35291 11                      # schedule.mlir:35291:11
	movq	112(%rax), %rcx
	.loc	1 35294 11                      # schedule.mlir:35294:11
	movq	144(%rax), %r8
	.loc	1 35297 11                      # schedule.mlir:35297:11
	movq	176(%rax), %r9
	.loc	1 35300 11                      # schedule.mlir:35300:11
	movq	208(%rax), %r14
	.loc	1 35303 11                      # schedule.mlir:35303:11
	movq	240(%rax), %rbx
	.loc	1 35306 11                      # schedule.mlir:35306:11
	movq	272(%rax), %r11
	.loc	1 35309 11                      # schedule.mlir:35309:11
	movq	304(%rax), %r10
	.loc	1 35312 11                      # schedule.mlir:35312:11
	movq	336(%rax), %rax
	.loc	1 35313 5                       # schedule.mlir:35313:5
	movq	%r14, (%rsp)
	movq	%rbx, 8(%rsp)
	movq	%r11, 16(%rsp)
	movq	%r10, 24(%rsp)
	movq	%rax, 32(%rsp)
	callq	build_grd_rot_pyr@PLT
	.loc	1 35314 5 epilogue_begin        # schedule.mlir:35314:5
	addq	$40, %rsp
	.cfi_def_cfa_offset 24
	popq	%rbx
	.cfi_def_cfa_offset 16
	popq	%r14
	.cfi_def_cfa_offset 8
	retq
.Ltmp25:
.Lfunc_end12:
	.size	iara_node_wrapper_113_build_grd_rot_pyr, .Lfunc_end12-iara_node_wrapper_113_build_grd_rot_pyr
	.cfi_endproc
                                        # -- End function
	.globl	iara_node_wrapper_114_ITERATOR_build_grd_rot_pyr # -- Begin function iara_node_wrapper_114_ITERATOR_build_grd_rot_pyr
	.p2align	4
	.type	iara_node_wrapper_114_ITERATOR_build_grd_rot_pyr,@function
iara_node_wrapper_114_ITERATOR_build_grd_rot_pyr: # @iara_node_wrapper_114_ITERATOR_build_grd_rot_pyr
.Lfunc_begin13:
	.loc	1 35316 0                       # schedule.mlir:35316:0
	.cfi_startproc
# %bb.0:
	subq	$24, %rsp
	.cfi_def_cfa_offset 32
	movq	%rsi, %rax
.Ltmp26:
	.loc	1 35319 10 prologue_end         # schedule.mlir:35319:10
	movq	16(%rax), %rdi
	.loc	1 35322 10                      # schedule.mlir:35322:10
	movq	48(%rax), %rsi
	.loc	1 35325 10                      # schedule.mlir:35325:10
	movq	80(%rax), %rdx
	.loc	1 35328 11                      # schedule.mlir:35328:11
	movq	112(%rax), %rcx
	.loc	1 35331 11                      # schedule.mlir:35331:11
	movq	144(%rax), %r8
	.loc	1 35334 11                      # schedule.mlir:35334:11
	movq	176(%rax), %r9
	.loc	1 35337 11                      # schedule.mlir:35337:11
	movq	208(%rax), %r10
	.loc	1 35340 11                      # schedule.mlir:35340:11
	movq	240(%rax), %rax
	.loc	1 35341 5                       # schedule.mlir:35341:5
	movq	%r10, (%rsp)
	movq	%rax, 8(%rsp)
	callq	ITERATOR_build_grd_rot_pyr@PLT
	.loc	1 35342 5 epilogue_begin        # schedule.mlir:35342:5
	addq	$24, %rsp
	.cfi_def_cfa_offset 8
	retq
.Ltmp27:
.Lfunc_end13:
	.size	iara_node_wrapper_114_ITERATOR_build_grd_rot_pyr, .Lfunc_end13-iara_node_wrapper_114_ITERATOR_build_grd_rot_pyr
	.cfi_endproc
                                        # -- End function
	.globl	iara_node_wrapper_115_to_float  # -- Begin function iara_node_wrapper_115_to_float
	.p2align	4
	.type	iara_node_wrapper_115_to_float,@function
iara_node_wrapper_115_to_float:         # @iara_node_wrapper_115_to_float
.Lfunc_begin14:
	.loc	1 35344 0                       # schedule.mlir:35344:0
	.cfi_startproc
# %bb.0:
	pushq	%rax
	.cfi_def_cfa_offset 16
.Ltmp28:
	.loc	1 35347 10 prologue_end         # schedule.mlir:35347:10
	movq	16(%rsi), %rdi
	.loc	1 35350 10                      # schedule.mlir:35350:10
	movq	48(%rsi), %rsi
	.loc	1 35351 5                       # schedule.mlir:35351:5
	callq	to_float@PLT
	.loc	1 35352 5 epilogue_begin        # schedule.mlir:35352:5
	popq	%rax
	.cfi_def_cfa_offset 8
	retq
.Ltmp29:
.Lfunc_end14:
	.size	iara_node_wrapper_115_to_float, .Lfunc_end14-iara_node_wrapper_115_to_float
	.cfi_endproc
                                        # -- End function
	.globl	"iara_node_wrapper_116_iara_broadcast_tensor<16383000xf32>_4_4" # -- Begin function iara_node_wrapper_116_iara_broadcast_tensor<16383000xf32>_4_4
	.p2align	4
	.type	"iara_node_wrapper_116_iara_broadcast_tensor<16383000xf32>_4_4",@function
"iara_node_wrapper_116_iara_broadcast_tensor<16383000xf32>_4_4": # @"iara_node_wrapper_116_iara_broadcast_tensor<16383000xf32>_4_4"
.Lfunc_begin15:
	.loc	1 35354 0                       # schedule.mlir:35354:0
	.cfi_startproc
# %bb.0:
	pushq	%rax
	.cfi_def_cfa_offset 16
	movq	%rsi, %rax
.Ltmp30:
	.loc	1 35357 10 prologue_end         # schedule.mlir:35357:10
	movq	16(%rax), %rdi
	.loc	1 35360 10                      # schedule.mlir:35360:10
	movq	48(%rax), %rsi
	.loc	1 35363 10                      # schedule.mlir:35363:10
	movq	80(%rax), %rdx
	.loc	1 35364 5                       # schedule.mlir:35364:5
	callq	"iara_broadcast_tensor<16383000xf32>_4_4"@PLT
	.loc	1 35365 5 epilogue_begin        # schedule.mlir:35365:5
	popq	%rax
	.cfi_def_cfa_offset 8
	retq
.Ltmp31:
.Lfunc_end15:
	.size	"iara_node_wrapper_116_iara_broadcast_tensor<16383000xf32>_4_4", .Lfunc_end15-"iara_node_wrapper_116_iara_broadcast_tensor<16383000xf32>_4_4"
	.cfi_endproc
                                        # -- End function
	.globl	iara_node_wrapper_117_MERGE_gpyr # -- Begin function iara_node_wrapper_117_MERGE_gpyr
	.p2align	4
	.type	iara_node_wrapper_117_MERGE_gpyr,@function
iara_node_wrapper_117_MERGE_gpyr:       # @iara_node_wrapper_117_MERGE_gpyr
.Lfunc_begin16:
	.loc	1 35367 0                       # schedule.mlir:35367:0
	.cfi_startproc
# %bb.0:
	pushq	%rax
	.cfi_def_cfa_offset 16
	movq	%rsi, %rax
.Ltmp32:
	.loc	1 35370 10 prologue_end         # schedule.mlir:35370:10
	movq	16(%rax), %rdi
	.loc	1 35373 10                      # schedule.mlir:35373:10
	movq	48(%rax), %rsi
	.loc	1 35376 10                      # schedule.mlir:35376:10
	movq	80(%rax), %rdx
	.loc	1 35379 11                      # schedule.mlir:35379:11
	movq	112(%rax), %rcx
	.loc	1 35382 11                      # schedule.mlir:35382:11
	movq	144(%rax), %r8
	.loc	1 35383 5                       # schedule.mlir:35383:5
	callq	MERGE_gpyr@PLT
	.loc	1 35384 5 epilogue_begin        # schedule.mlir:35384:5
	popq	%rax
	.cfi_def_cfa_offset 8
	retq
.Ltmp33:
.Lfunc_end16:
	.size	iara_node_wrapper_117_MERGE_gpyr, .Lfunc_end16-iara_node_wrapper_117_MERGE_gpyr
	.cfi_endproc
                                        # -- End function
	.globl	"iara_node_wrapper_118_iara_broadcast_tensor<512000xf32>_1io_6_1" # -- Begin function iara_node_wrapper_118_iara_broadcast_tensor<512000xf32>_1io_6_1
	.p2align	4
	.type	"iara_node_wrapper_118_iara_broadcast_tensor<512000xf32>_1io_6_1",@function
"iara_node_wrapper_118_iara_broadcast_tensor<512000xf32>_1io_6_1": # @"iara_node_wrapper_118_iara_broadcast_tensor<512000xf32>_1io_6_1"
.Lfunc_begin17:
	.loc	1 35386 0                       # schedule.mlir:35386:0
	.cfi_startproc
# %bb.0:
	pushq	%rax
	.cfi_def_cfa_offset 16
	movq	%rsi, %rax
.Ltmp34:
	.loc	1 35389 10 prologue_end         # schedule.mlir:35389:10
	movq	16(%rax), %rdi
	.loc	1 35392 10                      # schedule.mlir:35392:10
	movq	48(%rax), %rsi
	.loc	1 35395 10                      # schedule.mlir:35395:10
	movq	80(%rax), %rdx
	.loc	1 35398 11                      # schedule.mlir:35398:11
	movq	112(%rax), %rcx
	.loc	1 35399 5                       # schedule.mlir:35399:5
	callq	"iara_broadcast_tensor<512000xf32>_1io_6_1"@PLT
	.loc	1 35400 5 epilogue_begin        # schedule.mlir:35400:5
	popq	%rax
	.cfi_def_cfa_offset 8
	retq
.Ltmp35:
.Lfunc_end17:
	.size	"iara_node_wrapper_118_iara_broadcast_tensor<512000xf32>_1io_6_1", .Lfunc_end17-"iara_node_wrapper_118_iara_broadcast_tensor<512000xf32>_1io_6_1"
	.cfi_endproc
                                        # -- End function
	.globl	iara_node_wrapper_119_upsample2x # -- Begin function iara_node_wrapper_119_upsample2x
	.p2align	4
	.type	iara_node_wrapper_119_upsample2x,@function
iara_node_wrapper_119_upsample2x:       # @iara_node_wrapper_119_upsample2x
.Lfunc_begin18:
	.loc	1 35402 0                       # schedule.mlir:35402:0
	.cfi_startproc
# %bb.0:
	pushq	%rax
	.cfi_def_cfa_offset 16
	movq	%rsi, %rax
.Ltmp36:
	.loc	1 35405 10 prologue_end         # schedule.mlir:35405:10
	movq	16(%rax), %rdi
	.loc	1 35408 10                      # schedule.mlir:35408:10
	movq	48(%rax), %rsi
	.loc	1 35411 10                      # schedule.mlir:35411:10
	movq	80(%rax), %rdx
	.loc	1 35412 5                       # schedule.mlir:35412:5
	callq	upsample2x@PLT
	.loc	1 35413 5 epilogue_begin        # schedule.mlir:35413:5
	popq	%rax
	.cfi_def_cfa_offset 8
	retq
.Ltmp37:
.Lfunc_end18:
	.size	iara_node_wrapper_119_upsample2x, .Lfunc_end18-iara_node_wrapper_119_upsample2x
	.cfi_endproc
                                        # -- End function
	.globl	iara_node_wrapper_120_downsample2xN # -- Begin function iara_node_wrapper_120_downsample2xN
	.p2align	4
	.type	iara_node_wrapper_120_downsample2xN,@function
iara_node_wrapper_120_downsample2xN:    # @iara_node_wrapper_120_downsample2xN
.Lfunc_begin19:
	.loc	1 35415 0                       # schedule.mlir:35415:0
	.cfi_startproc
# %bb.0:
	pushq	%rax
	.cfi_def_cfa_offset 16
	movq	%rsi, %rax
.Ltmp38:
	.loc	1 35418 10 prologue_end         # schedule.mlir:35418:10
	movq	16(%rax), %rdi
	.loc	1 35421 10                      # schedule.mlir:35421:10
	movq	48(%rax), %rsi
	.loc	1 35424 10                      # schedule.mlir:35424:10
	movq	80(%rax), %rdx
	.loc	1 35427 11                      # schedule.mlir:35427:11
	movq	112(%rax), %rcx
	.loc	1 35428 5                       # schedule.mlir:35428:5
	callq	downsample2xN@PLT
	.loc	1 35429 5 epilogue_begin        # schedule.mlir:35429:5
	popq	%rax
	.cfi_def_cfa_offset 8
	retq
.Ltmp39:
.Lfunc_end19:
	.size	iara_node_wrapper_120_downsample2xN, .Lfunc_end19-iara_node_wrapper_120_downsample2xN
	.cfi_endproc
                                        # -- End function
	.globl	"iara_node_wrapper_121_iara_broadcast_tensor<126xf32>_24_24_24_24_6_24" # -- Begin function iara_node_wrapper_121_iara_broadcast_tensor<126xf32>_24_24_24_24_6_24
	.p2align	4
	.type	"iara_node_wrapper_121_iara_broadcast_tensor<126xf32>_24_24_24_24_6_24",@function
"iara_node_wrapper_121_iara_broadcast_tensor<126xf32>_24_24_24_24_6_24": # @"iara_node_wrapper_121_iara_broadcast_tensor<126xf32>_24_24_24_24_6_24"
.Lfunc_begin20:
	.loc	1 35431 0                       # schedule.mlir:35431:0
	.cfi_startproc
# %bb.0:
	pushq	%rax
	.cfi_def_cfa_offset 16
	movq	%rsi, %rax
.Ltmp40:
	.loc	1 35434 10 prologue_end         # schedule.mlir:35434:10
	movq	16(%rax), %rdi
	.loc	1 35437 10                      # schedule.mlir:35437:10
	movq	48(%rax), %rsi
	.loc	1 35440 10                      # schedule.mlir:35440:10
	movq	80(%rax), %rdx
	.loc	1 35443 11                      # schedule.mlir:35443:11
	movq	112(%rax), %rcx
	.loc	1 35446 11                      # schedule.mlir:35446:11
	movq	144(%rax), %r8
	.loc	1 35449 11                      # schedule.mlir:35449:11
	movq	176(%rax), %r9
	.loc	1 35452 11                      # schedule.mlir:35452:11
	movq	208(%rax), %rax
	.loc	1 35453 5                       # schedule.mlir:35453:5
	movq	%rax, (%rsp)
	callq	"iara_broadcast_tensor<126xf32>_24_24_24_24_6_24"@PLT
	.loc	1 35454 5 epilogue_begin        # schedule.mlir:35454:5
	popq	%rax
	.cfi_def_cfa_offset 8
	retq
.Ltmp41:
.Lfunc_end20:
	.size	"iara_node_wrapper_121_iara_broadcast_tensor<126xf32>_24_24_24_24_6_24", .Lfunc_end20-"iara_node_wrapper_121_iara_broadcast_tensor<126xf32>_24_24_24_24_6_24"
	.cfi_endproc
                                        # -- End function
	.globl	"iara_node_wrapper_122_iara_broadcast_tensor<6xi32>_24_24_24_24_6_24" # -- Begin function iara_node_wrapper_122_iara_broadcast_tensor<6xi32>_24_24_24_24_6_24
	.p2align	4
	.type	"iara_node_wrapper_122_iara_broadcast_tensor<6xi32>_24_24_24_24_6_24",@function
"iara_node_wrapper_122_iara_broadcast_tensor<6xi32>_24_24_24_24_6_24": # @"iara_node_wrapper_122_iara_broadcast_tensor<6xi32>_24_24_24_24_6_24"
.Lfunc_begin21:
	.loc	1 35456 0                       # schedule.mlir:35456:0
	.cfi_startproc
# %bb.0:
	pushq	%rax
	.cfi_def_cfa_offset 16
	movq	%rsi, %rax
.Ltmp42:
	.loc	1 35459 10 prologue_end         # schedule.mlir:35459:10
	movq	16(%rax), %rdi
	.loc	1 35462 10                      # schedule.mlir:35462:10
	movq	48(%rax), %rsi
	.loc	1 35465 10                      # schedule.mlir:35465:10
	movq	80(%rax), %rdx
	.loc	1 35468 11                      # schedule.mlir:35468:11
	movq	112(%rax), %rcx
	.loc	1 35471 11                      # schedule.mlir:35471:11
	movq	144(%rax), %r8
	.loc	1 35474 11                      # schedule.mlir:35474:11
	movq	176(%rax), %r9
	.loc	1 35477 11                      # schedule.mlir:35477:11
	movq	208(%rax), %rax
	.loc	1 35478 5                       # schedule.mlir:35478:5
	movq	%rax, (%rsp)
	callq	"iara_broadcast_tensor<6xi32>_24_24_24_24_6_24"@PLT
	.loc	1 35479 5 epilogue_begin        # schedule.mlir:35479:5
	popq	%rax
	.cfi_def_cfa_offset 8
	retq
.Ltmp43:
.Lfunc_end21:
	.size	"iara_node_wrapper_122_iara_broadcast_tensor<6xi32>_24_24_24_24_6_24", .Lfunc_end21-"iara_node_wrapper_122_iara_broadcast_tensor<6xi32>_24_24_24_24_6_24"
	.cfi_endproc
                                        # -- End function
	.globl	"iara_node_wrapper_123_iara_broadcast_tensor<2048000xf32>_6" # -- Begin function iara_node_wrapper_123_iara_broadcast_tensor<2048000xf32>_6
	.p2align	4
	.type	"iara_node_wrapper_123_iara_broadcast_tensor<2048000xf32>_6",@function
"iara_node_wrapper_123_iara_broadcast_tensor<2048000xf32>_6": # @"iara_node_wrapper_123_iara_broadcast_tensor<2048000xf32>_6"
.Lfunc_begin22:
	.loc	1 35481 0                       # schedule.mlir:35481:0
	.cfi_startproc
# %bb.0:
	pushq	%rax
	.cfi_def_cfa_offset 16
.Ltmp44:
	.loc	1 35484 10 prologue_end         # schedule.mlir:35484:10
	movq	16(%rsi), %rdi
	.loc	1 35487 10                      # schedule.mlir:35487:10
	movq	48(%rsi), %rsi
	.loc	1 35488 5                       # schedule.mlir:35488:5
	callq	"iara_broadcast_tensor<2048000xf32>_6"@PLT
	.loc	1 35489 5 epilogue_begin        # schedule.mlir:35489:5
	popq	%rax
	.cfi_def_cfa_offset 8
	retq
.Ltmp45:
.Lfunc_end22:
	.size	"iara_node_wrapper_123_iara_broadcast_tensor<2048000xf32>_6", .Lfunc_end22-"iara_node_wrapper_123_iara_broadcast_tensor<2048000xf32>_6"
	.cfi_endproc
                                        # -- End function
	.globl	"iara_node_wrapper_124_iara_broadcast_tensor<128000xf32>_4_6" # -- Begin function iara_node_wrapper_124_iara_broadcast_tensor<128000xf32>_4_6
	.p2align	4
	.type	"iara_node_wrapper_124_iara_broadcast_tensor<128000xf32>_4_6",@function
"iara_node_wrapper_124_iara_broadcast_tensor<128000xf32>_4_6": # @"iara_node_wrapper_124_iara_broadcast_tensor<128000xf32>_4_6"
.Lfunc_begin23:
	.loc	1 35491 0                       # schedule.mlir:35491:0
	.cfi_startproc
# %bb.0:
	pushq	%rax
	.cfi_def_cfa_offset 16
	movq	%rsi, %rax
.Ltmp46:
	.loc	1 35494 10 prologue_end         # schedule.mlir:35494:10
	movq	16(%rax), %rdi
	.loc	1 35497 10                      # schedule.mlir:35497:10
	movq	48(%rax), %rsi
	.loc	1 35500 10                      # schedule.mlir:35500:10
	movq	80(%rax), %rdx
	.loc	1 35501 5                       # schedule.mlir:35501:5
	callq	"iara_broadcast_tensor<128000xf32>_4_6"@PLT
	.loc	1 35502 5 epilogue_begin        # schedule.mlir:35502:5
	popq	%rax
	.cfi_def_cfa_offset 8
	retq
.Ltmp47:
.Lfunc_end23:
	.size	"iara_node_wrapper_124_iara_broadcast_tensor<128000xf32>_4_6", .Lfunc_end23-"iara_node_wrapper_124_iara_broadcast_tensor<128000xf32>_4_6"
	.cfi_endproc
                                        # -- End function
	.globl	iara_node_wrapper_125_seq_blur1 # -- Begin function iara_node_wrapper_125_seq_blur1
	.p2align	4
	.type	iara_node_wrapper_125_seq_blur1,@function
iara_node_wrapper_125_seq_blur1:        # @iara_node_wrapper_125_seq_blur1
.Lfunc_begin24:
	.loc	1 35504 0                       # schedule.mlir:35504:0
	.cfi_startproc
# %bb.0:
	pushq	%rax
	.cfi_def_cfa_offset 16
	movq	%rsi, %rax
.Ltmp48:
	.loc	1 35507 10 prologue_end         # schedule.mlir:35507:10
	movq	16(%rax), %rdi
	.loc	1 35510 10                      # schedule.mlir:35510:10
	movq	48(%rax), %rsi
	.loc	1 35513 10                      # schedule.mlir:35513:10
	movq	80(%rax), %rdx
	.loc	1 35516 11                      # schedule.mlir:35516:11
	movq	112(%rax), %rcx
	.loc	1 35519 11                      # schedule.mlir:35519:11
	movq	144(%rax), %r8
	.loc	1 35522 11                      # schedule.mlir:35522:11
	movq	176(%rax), %r9
	.loc	1 35523 5                       # schedule.mlir:35523:5
	callq	seq_blur1@PLT
	.loc	1 35524 5 epilogue_begin        # schedule.mlir:35524:5
	popq	%rax
	.cfi_def_cfa_offset 8
	retq
.Ltmp49:
.Lfunc_end24:
	.size	iara_node_wrapper_125_seq_blur1, .Lfunc_end24-iara_node_wrapper_125_seq_blur1
	.cfi_endproc
                                        # -- End function
	.globl	iara_node_wrapper_126_downsample2x1 # -- Begin function iara_node_wrapper_126_downsample2x1
	.p2align	4
	.type	iara_node_wrapper_126_downsample2x1,@function
iara_node_wrapper_126_downsample2x1:    # @iara_node_wrapper_126_downsample2x1
.Lfunc_begin25:
	.loc	1 35526 0                       # schedule.mlir:35526:0
	.cfi_startproc
# %bb.0:
	pushq	%rax
	.cfi_def_cfa_offset 16
.Ltmp50:
	.loc	1 35529 10 prologue_end         # schedule.mlir:35529:10
	movq	16(%rsi), %rdi
	.loc	1 35532 10                      # schedule.mlir:35532:10
	movq	48(%rsi), %rsi
	.loc	1 35533 5                       # schedule.mlir:35533:5
	callq	downsample2x1@PLT
	.loc	1 35534 5 epilogue_begin        # schedule.mlir:35534:5
	popq	%rax
	.cfi_def_cfa_offset 8
	retq
.Ltmp51:
.Lfunc_end25:
	.size	iara_node_wrapper_126_downsample2x1, .Lfunc_end25-iara_node_wrapper_126_downsample2x1
	.cfi_endproc
                                        # -- End function
	.globl	iara_node_wrapper_127_seq_blurN # -- Begin function iara_node_wrapper_127_seq_blurN
	.p2align	4
	.type	iara_node_wrapper_127_seq_blurN,@function
iara_node_wrapper_127_seq_blurN:        # @iara_node_wrapper_127_seq_blurN
.Lfunc_begin26:
	.loc	1 35536 0                       # schedule.mlir:35536:0
	.cfi_startproc
# %bb.0:
	pushq	%rax
	.cfi_def_cfa_offset 16
	movq	%rsi, %rax
.Ltmp52:
	.loc	1 35539 10 prologue_end         # schedule.mlir:35539:10
	movq	16(%rax), %rdi
	.loc	1 35542 10                      # schedule.mlir:35542:10
	movq	48(%rax), %rsi
	.loc	1 35545 10                      # schedule.mlir:35545:10
	movq	80(%rax), %rdx
	.loc	1 35548 11                      # schedule.mlir:35548:11
	movq	112(%rax), %rcx
	.loc	1 35551 11                      # schedule.mlir:35551:11
	movq	144(%rax), %r8
	.loc	1 35554 11                      # schedule.mlir:35554:11
	movq	176(%rax), %r9
	.loc	1 35557 11                      # schedule.mlir:35557:11
	movq	208(%rax), %rax
	.loc	1 35558 5                       # schedule.mlir:35558:5
	movq	%rax, (%rsp)
	callq	seq_blurN@PLT
	.loc	1 35559 5 epilogue_begin        # schedule.mlir:35559:5
	popq	%rax
	.cfi_def_cfa_offset 8
	retq
.Ltmp53:
.Lfunc_end26:
	.size	iara_node_wrapper_127_seq_blurN, .Lfunc_end26-iara_node_wrapper_127_seq_blurN
	.cfi_endproc
                                        # -- End function
	.globl	"iara_node_wrapper_128_iara_broadcast_tensor<32000xf32>_6_1" # -- Begin function iara_node_wrapper_128_iara_broadcast_tensor<32000xf32>_6_1
	.p2align	4
	.type	"iara_node_wrapper_128_iara_broadcast_tensor<32000xf32>_6_1",@function
"iara_node_wrapper_128_iara_broadcast_tensor<32000xf32>_6_1": # @"iara_node_wrapper_128_iara_broadcast_tensor<32000xf32>_6_1"
.Lfunc_begin27:
	.loc	1 35561 0                       # schedule.mlir:35561:0
	.cfi_startproc
# %bb.0:
	pushq	%rax
	.cfi_def_cfa_offset 16
	movq	%rsi, %rax
.Ltmp54:
	.loc	1 35564 10 prologue_end         # schedule.mlir:35564:10
	movq	16(%rax), %rdi
	.loc	1 35567 10                      # schedule.mlir:35567:10
	movq	48(%rax), %rsi
	.loc	1 35570 10                      # schedule.mlir:35570:10
	movq	80(%rax), %rdx
	.loc	1 35571 5                       # schedule.mlir:35571:5
	callq	"iara_broadcast_tensor<32000xf32>_6_1"@PLT
	.loc	1 35572 5 epilogue_begin        # schedule.mlir:35572:5
	popq	%rax
	.cfi_def_cfa_offset 8
	retq
.Ltmp55:
.Lfunc_end27:
	.size	"iara_node_wrapper_128_iara_broadcast_tensor<32000xf32>_6_1", .Lfunc_end27-"iara_node_wrapper_128_iara_broadcast_tensor<32000xf32>_6_1"
	.cfi_endproc
                                        # -- End function
	.globl	iara_node_wrapper_129_counterGpyrLayer # -- Begin function iara_node_wrapper_129_counterGpyrLayer
	.p2align	4
	.type	iara_node_wrapper_129_counterGpyrLayer,@function
iara_node_wrapper_129_counterGpyrLayer: # @iara_node_wrapper_129_counterGpyrLayer
.Lfunc_begin28:
	.loc	1 35574 0                       # schedule.mlir:35574:0
	.cfi_startproc
# %bb.0:
	pushq	%rax
	.cfi_def_cfa_offset 16
.Ltmp56:
	.loc	1 35577 10 prologue_end         # schedule.mlir:35577:10
	movq	16(%rsi), %rdi
	.loc	1 35578 5                       # schedule.mlir:35578:5
	callq	counterGpyrLayer@PLT
	.loc	1 35579 5 epilogue_begin        # schedule.mlir:35579:5
	popq	%rax
	.cfi_def_cfa_offset 8
	retq
.Ltmp57:
.Lfunc_end28:
	.size	iara_node_wrapper_129_counterGpyrLayer, .Lfunc_end28-iara_node_wrapper_129_counterGpyrLayer
	.cfi_endproc
                                        # -- End function
	.globl	"iara_node_wrapper_130_iara_broadcast_tensor<1xi32>_4_4_1_4_4_1" # -- Begin function iara_node_wrapper_130_iara_broadcast_tensor<1xi32>_4_4_1_4_4_1
	.p2align	4
	.type	"iara_node_wrapper_130_iara_broadcast_tensor<1xi32>_4_4_1_4_4_1",@function
"iara_node_wrapper_130_iara_broadcast_tensor<1xi32>_4_4_1_4_4_1": # @"iara_node_wrapper_130_iara_broadcast_tensor<1xi32>_4_4_1_4_4_1"
.Lfunc_begin29:
	.loc	1 35581 0                       # schedule.mlir:35581:0
	.cfi_startproc
# %bb.0:
	pushq	%rax
	.cfi_def_cfa_offset 16
	movq	%rsi, %rax
.Ltmp58:
	.loc	1 35584 10 prologue_end         # schedule.mlir:35584:10
	movq	16(%rax), %rdi
	.loc	1 35587 10                      # schedule.mlir:35587:10
	movq	48(%rax), %rsi
	.loc	1 35590 10                      # schedule.mlir:35590:10
	movq	80(%rax), %rdx
	.loc	1 35593 11                      # schedule.mlir:35593:11
	movq	112(%rax), %rcx
	.loc	1 35596 11                      # schedule.mlir:35596:11
	movq	144(%rax), %r8
	.loc	1 35599 11                      # schedule.mlir:35599:11
	movq	176(%rax), %r9
	.loc	1 35602 11                      # schedule.mlir:35602:11
	movq	208(%rax), %rax
	.loc	1 35603 5                       # schedule.mlir:35603:5
	movq	%rax, (%rsp)
	callq	"iara_broadcast_tensor<1xi32>_4_4_1_4_4_1"@PLT
	.loc	1 35604 5 epilogue_begin        # schedule.mlir:35604:5
	popq	%rax
	.cfi_def_cfa_offset 8
	retq
.Ltmp59:
.Lfunc_end29:
	.size	"iara_node_wrapper_130_iara_broadcast_tensor<1xi32>_4_4_1_4_4_1", .Lfunc_end29-"iara_node_wrapper_130_iara_broadcast_tensor<1xi32>_4_4_1_4_4_1"
	.cfi_endproc
                                        # -- End function
	.globl	iara_node_wrapper_131_counterOctaveDownN # -- Begin function iara_node_wrapper_131_counterOctaveDownN
	.p2align	4
	.type	iara_node_wrapper_131_counterOctaveDownN,@function
iara_node_wrapper_131_counterOctaveDownN: # @iara_node_wrapper_131_counterOctaveDownN
.Lfunc_begin30:
	.loc	1 35606 0                       # schedule.mlir:35606:0
	.cfi_startproc
# %bb.0:
	pushq	%rax
	.cfi_def_cfa_offset 16
.Ltmp60:
	.loc	1 35609 10 prologue_end         # schedule.mlir:35609:10
	movq	16(%rsi), %rdi
	.loc	1 35610 5                       # schedule.mlir:35610:5
	callq	counterOctaveDownN@PLT
	.loc	1 35611 5 epilogue_begin        # schedule.mlir:35611:5
	popq	%rax
	.cfi_def_cfa_offset 8
	retq
.Ltmp61:
.Lfunc_end30:
	.size	iara_node_wrapper_131_counterOctaveDownN, .Lfunc_end30-iara_node_wrapper_131_counterOctaveDownN
	.cfi_endproc
                                        # -- End function
	.globl	"iara_node_wrapper_132_iara_broadcast_tensor<512000xf32>_1io_1" # -- Begin function iara_node_wrapper_132_iara_broadcast_tensor<512000xf32>_1io_1
	.p2align	4
	.type	"iara_node_wrapper_132_iara_broadcast_tensor<512000xf32>_1io_1",@function
"iara_node_wrapper_132_iara_broadcast_tensor<512000xf32>_1io_1": # @"iara_node_wrapper_132_iara_broadcast_tensor<512000xf32>_1io_1"
.Lfunc_begin31:
	.loc	1 35613 0                       # schedule.mlir:35613:0
	.cfi_startproc
# %bb.0:
	pushq	%rax
	.cfi_def_cfa_offset 16
	movq	%rsi, %rax
.Ltmp62:
	.loc	1 35616 10 prologue_end         # schedule.mlir:35616:10
	movq	16(%rax), %rdi
	.loc	1 35619 10                      # schedule.mlir:35619:10
	movq	48(%rax), %rsi
	.loc	1 35622 10                      # schedule.mlir:35622:10
	movq	80(%rax), %rdx
	.loc	1 35623 5                       # schedule.mlir:35623:5
	callq	"iara_broadcast_tensor<512000xf32>_1io_1"@PLT
	.loc	1 35624 5 epilogue_begin        # schedule.mlir:35624:5
	popq	%rax
	.cfi_def_cfa_offset 8
	retq
.Ltmp63:
.Lfunc_end31:
	.size	"iara_node_wrapper_132_iara_broadcast_tensor<512000xf32>_1io_1", .Lfunc_end31-"iara_node_wrapper_132_iara_broadcast_tensor<512000xf32>_1io_1"
	.cfi_endproc
                                        # -- End function
	.globl	"iara_node_wrapper_133_iara_broadcast_tensor<2048000xf32>_1io_1" # -- Begin function iara_node_wrapper_133_iara_broadcast_tensor<2048000xf32>_1io_1
	.p2align	4
	.type	"iara_node_wrapper_133_iara_broadcast_tensor<2048000xf32>_1io_1",@function
"iara_node_wrapper_133_iara_broadcast_tensor<2048000xf32>_1io_1": # @"iara_node_wrapper_133_iara_broadcast_tensor<2048000xf32>_1io_1"
.Lfunc_begin32:
	.loc	1 35626 0                       # schedule.mlir:35626:0
	.cfi_startproc
# %bb.0:
	pushq	%rax
	.cfi_def_cfa_offset 16
	movq	%rsi, %rax
.Ltmp64:
	.loc	1 35629 10 prologue_end         # schedule.mlir:35629:10
	movq	16(%rax), %rdi
	.loc	1 35632 10                      # schedule.mlir:35632:10
	movq	48(%rax), %rsi
	.loc	1 35635 10                      # schedule.mlir:35635:10
	movq	80(%rax), %rdx
	.loc	1 35636 5                       # schedule.mlir:35636:5
	callq	"iara_broadcast_tensor<2048000xf32>_1io_1"@PLT
	.loc	1 35637 5 epilogue_begin        # schedule.mlir:35637:5
	popq	%rax
	.cfi_def_cfa_offset 8
	retq
.Ltmp65:
.Lfunc_end32:
	.size	"iara_node_wrapper_133_iara_broadcast_tensor<2048000xf32>_1io_1", .Lfunc_end32-"iara_node_wrapper_133_iara_broadcast_tensor<2048000xf32>_1io_1"
	.cfi_endproc
                                        # -- End function
	.globl	"iara_node_wrapper_134_iara_broadcast_tensor<128000xf32>_1io_1" # -- Begin function iara_node_wrapper_134_iara_broadcast_tensor<128000xf32>_1io_1
	.p2align	4
	.type	"iara_node_wrapper_134_iara_broadcast_tensor<128000xf32>_1io_1",@function
"iara_node_wrapper_134_iara_broadcast_tensor<128000xf32>_1io_1": # @"iara_node_wrapper_134_iara_broadcast_tensor<128000xf32>_1io_1"
.Lfunc_begin33:
	.loc	1 35639 0                       # schedule.mlir:35639:0
	.cfi_startproc
# %bb.0:
	pushq	%rax
	.cfi_def_cfa_offset 16
	movq	%rsi, %rax
.Ltmp66:
	.loc	1 35642 10 prologue_end         # schedule.mlir:35642:10
	movq	16(%rax), %rdi
	.loc	1 35645 10                      # schedule.mlir:35645:10
	movq	48(%rax), %rsi
	.loc	1 35648 10                      # schedule.mlir:35648:10
	movq	80(%rax), %rdx
	.loc	1 35649 5                       # schedule.mlir:35649:5
	callq	"iara_broadcast_tensor<128000xf32>_1io_1"@PLT
	.loc	1 35650 5 epilogue_begin        # schedule.mlir:35650:5
	popq	%rax
	.cfi_def_cfa_offset 8
	retq
.Ltmp67:
.Lfunc_end33:
	.size	"iara_node_wrapper_134_iara_broadcast_tensor<128000xf32>_1io_1", .Lfunc_end33-"iara_node_wrapper_134_iara_broadcast_tensor<128000xf32>_1io_1"
	.cfi_endproc
                                        # -- End function
	.globl	"iara_node_wrapper_135_iara_broadcast_tensor<32000xf32>_1io_1" # -- Begin function iara_node_wrapper_135_iara_broadcast_tensor<32000xf32>_1io_1
	.p2align	4
	.type	"iara_node_wrapper_135_iara_broadcast_tensor<32000xf32>_1io_1",@function
"iara_node_wrapper_135_iara_broadcast_tensor<32000xf32>_1io_1": # @"iara_node_wrapper_135_iara_broadcast_tensor<32000xf32>_1io_1"
.Lfunc_begin34:
	.loc	1 35652 0                       # schedule.mlir:35652:0
	.cfi_startproc
# %bb.0:
	pushq	%rax
	.cfi_def_cfa_offset 16
	movq	%rsi, %rax
.Ltmp68:
	.loc	1 35655 10 prologue_end         # schedule.mlir:35655:10
	movq	16(%rax), %rdi
	.loc	1 35658 10                      # schedule.mlir:35658:10
	movq	48(%rax), %rsi
	.loc	1 35661 10                      # schedule.mlir:35661:10
	movq	80(%rax), %rdx
	.loc	1 35662 5                       # schedule.mlir:35662:5
	callq	"iara_broadcast_tensor<32000xf32>_1io_1"@PLT
	.loc	1 35663 5 epilogue_begin        # schedule.mlir:35663:5
	popq	%rax
	.cfi_def_cfa_offset 8
	retq
.Ltmp69:
.Lfunc_end34:
	.size	"iara_node_wrapper_135_iara_broadcast_tensor<32000xf32>_1io_1", .Lfunc_end34-"iara_node_wrapper_135_iara_broadcast_tensor<32000xf32>_1io_1"
	.cfi_endproc
                                        # -- End function
	.globl	"iara_node_wrapper_136_iara_broadcast_tensor<1xi32>_1io_6" # -- Begin function iara_node_wrapper_136_iara_broadcast_tensor<1xi32>_1io_6
	.p2align	4
	.type	"iara_node_wrapper_136_iara_broadcast_tensor<1xi32>_1io_6",@function
"iara_node_wrapper_136_iara_broadcast_tensor<1xi32>_1io_6": # @"iara_node_wrapper_136_iara_broadcast_tensor<1xi32>_1io_6"
.Lfunc_begin35:
	.loc	1 35665 0                       # schedule.mlir:35665:0
	.cfi_startproc
# %bb.0:
	pushq	%rax
	.cfi_def_cfa_offset 16
	movq	%rsi, %rax
.Ltmp70:
	.loc	1 35668 10 prologue_end         # schedule.mlir:35668:10
	movq	16(%rax), %rdi
	.loc	1 35671 10                      # schedule.mlir:35671:10
	movq	48(%rax), %rsi
	.loc	1 35674 10                      # schedule.mlir:35674:10
	movq	80(%rax), %rdx
	.loc	1 35675 5                       # schedule.mlir:35675:5
	callq	"iara_broadcast_tensor<1xi32>_1io_6"@PLT
	.loc	1 35676 5 epilogue_begin        # schedule.mlir:35676:5
	popq	%rax
	.cfi_def_cfa_offset 8
	retq
.Ltmp71:
.Lfunc_end35:
	.size	"iara_node_wrapper_136_iara_broadcast_tensor<1xi32>_1io_6", .Lfunc_end35-"iara_node_wrapper_136_iara_broadcast_tensor<1xi32>_1io_6"
	.cfi_endproc
                                        # -- End function
	.globl	iara_node_wrapper_137_MERGE_keypoints # -- Begin function iara_node_wrapper_137_MERGE_keypoints
	.p2align	4
	.type	iara_node_wrapper_137_MERGE_keypoints,@function
iara_node_wrapper_137_MERGE_keypoints:  # @iara_node_wrapper_137_MERGE_keypoints
.Lfunc_begin36:
	.loc	1 35678 0                       # schedule.mlir:35678:0
	.cfi_startproc
# %bb.0:
	pushq	%rax
	.cfi_def_cfa_offset 16
	movq	%rsi, %rax
.Ltmp72:
	.loc	1 35681 10 prologue_end         # schedule.mlir:35681:10
	movq	16(%rax), %rdi
	.loc	1 35684 10                      # schedule.mlir:35684:10
	movq	48(%rax), %rsi
	.loc	1 35687 10                      # schedule.mlir:35687:10
	movq	80(%rax), %rdx
	.loc	1 35688 5                       # schedule.mlir:35688:5
	callq	MERGE_keypoints@PLT
	.loc	1 35689 5 epilogue_begin        # schedule.mlir:35689:5
	popq	%rax
	.cfi_def_cfa_offset 8
	retq
.Ltmp73:
.Lfunc_end36:
	.size	iara_node_wrapper_137_MERGE_keypoints, .Lfunc_end36-iara_node_wrapper_137_MERGE_keypoints
	.cfi_endproc
                                        # -- End function
	.globl	"iara_node_wrapper_138_iara_broadcast_tensor<6xi32>_4" # -- Begin function iara_node_wrapper_138_iara_broadcast_tensor<6xi32>_4
	.p2align	4
	.type	"iara_node_wrapper_138_iara_broadcast_tensor<6xi32>_4",@function
"iara_node_wrapper_138_iara_broadcast_tensor<6xi32>_4": # @"iara_node_wrapper_138_iara_broadcast_tensor<6xi32>_4"
.Lfunc_begin37:
	.loc	1 35691 0                       # schedule.mlir:35691:0
	.cfi_startproc
# %bb.0:
	pushq	%rax
	.cfi_def_cfa_offset 16
.Ltmp74:
	.loc	1 35694 10 prologue_end         # schedule.mlir:35694:10
	movq	16(%rsi), %rdi
	.loc	1 35697 10                      # schedule.mlir:35697:10
	movq	48(%rsi), %rsi
	.loc	1 35698 5                       # schedule.mlir:35698:5
	callq	"iara_broadcast_tensor<6xi32>_4"@PLT
	.loc	1 35699 5 epilogue_begin        # schedule.mlir:35699:5
	popq	%rax
	.cfi_def_cfa_offset 8
	retq
.Ltmp75:
.Lfunc_end37:
	.size	"iara_node_wrapper_138_iara_broadcast_tensor<6xi32>_4", .Lfunc_end37-"iara_node_wrapper_138_iara_broadcast_tensor<6xi32>_4"
	.cfi_endproc
                                        # -- End function
	.globl	"iara_node_wrapper_139_iara_broadcast_tensor<13652500xf32>_4" # -- Begin function iara_node_wrapper_139_iara_broadcast_tensor<13652500xf32>_4
	.p2align	4
	.type	"iara_node_wrapper_139_iara_broadcast_tensor<13652500xf32>_4",@function
"iara_node_wrapper_139_iara_broadcast_tensor<13652500xf32>_4": # @"iara_node_wrapper_139_iara_broadcast_tensor<13652500xf32>_4"
.Lfunc_begin38:
	.loc	1 35701 0                       # schedule.mlir:35701:0
	.cfi_startproc
# %bb.0:
	pushq	%rax
	.cfi_def_cfa_offset 16
.Ltmp76:
	.loc	1 35704 10 prologue_end         # schedule.mlir:35704:10
	movq	16(%rsi), %rdi
	.loc	1 35707 10                      # schedule.mlir:35707:10
	movq	48(%rsi), %rsi
	.loc	1 35708 5                       # schedule.mlir:35708:5
	callq	"iara_broadcast_tensor<13652500xf32>_4"@PLT
	.loc	1 35709 5 epilogue_begin        # schedule.mlir:35709:5
	popq	%rax
	.cfi_def_cfa_offset 8
	retq
.Ltmp77:
.Lfunc_end38:
	.size	"iara_node_wrapper_139_iara_broadcast_tensor<13652500xf32>_4", .Lfunc_end38-"iara_node_wrapper_139_iara_broadcast_tensor<13652500xf32>_4"
	.cfi_endproc
                                        # -- End function
	.globl	iara_node_wrapper_140_BarrierCounterGpyr # -- Begin function iara_node_wrapper_140_BarrierCounterGpyr
	.p2align	4
	.type	iara_node_wrapper_140_BarrierCounterGpyr,@function
iara_node_wrapper_140_BarrierCounterGpyr: # @iara_node_wrapper_140_BarrierCounterGpyr
.Lfunc_begin39:
	.loc	1 35711 0                       # schedule.mlir:35711:0
	.cfi_startproc
# %bb.0:
	pushq	%rax
	.cfi_def_cfa_offset 16
.Ltmp78:
	.loc	1 35714 10 prologue_end         # schedule.mlir:35714:10
	movq	16(%rsi), %rdi
	.loc	1 35717 10                      # schedule.mlir:35717:10
	movq	48(%rsi), %rsi
	.loc	1 35718 5                       # schedule.mlir:35718:5
	callq	BarrierCounterGpyr@PLT
	.loc	1 35719 5 epilogue_begin        # schedule.mlir:35719:5
	popq	%rax
	.cfi_def_cfa_offset 8
	retq
.Ltmp79:
.Lfunc_end39:
	.size	iara_node_wrapper_140_BarrierCounterGpyr, .Lfunc_end39-iara_node_wrapper_140_BarrierCounterGpyr
	.cfi_endproc
                                        # -- End function
	.globl	iara_node_wrapper_141_SPLIT_upsample2x # -- Begin function iara_node_wrapper_141_SPLIT_upsample2x
	.p2align	4
	.type	iara_node_wrapper_141_SPLIT_upsample2x,@function
iara_node_wrapper_141_SPLIT_upsample2x: # @iara_node_wrapper_141_SPLIT_upsample2x
.Lfunc_begin40:
	.loc	1 35721 0                       # schedule.mlir:35721:0
	.cfi_startproc
# %bb.0:
	pushq	%rax
	.cfi_def_cfa_offset 16
.Ltmp80:
	.loc	1 35724 10 prologue_end         # schedule.mlir:35724:10
	movq	16(%rsi), %rdi
	.loc	1 35727 10                      # schedule.mlir:35727:10
	movq	48(%rsi), %rsi
	.loc	1 35728 5                       # schedule.mlir:35728:5
	callq	SPLIT_upsample2x@PLT
	.loc	1 35729 5 epilogue_begin        # schedule.mlir:35729:5
	popq	%rax
	.cfi_def_cfa_offset 8
	retq
.Ltmp81:
.Lfunc_end40:
	.size	iara_node_wrapper_141_SPLIT_upsample2x, .Lfunc_end40-iara_node_wrapper_141_SPLIT_upsample2x
	.cfi_endproc
                                        # -- End function
	.globl	iara_node_wrapper_142_counterPLevels # -- Begin function iara_node_wrapper_142_counterPLevels
	.p2align	4
	.type	iara_node_wrapper_142_counterPLevels,@function
iara_node_wrapper_142_counterPLevels:   # @iara_node_wrapper_142_counterPLevels
.Lfunc_begin41:
	.loc	1 35731 0                       # schedule.mlir:35731:0
	.cfi_startproc
# %bb.0:
	pushq	%rax
	.cfi_def_cfa_offset 16
.Ltmp82:
	.loc	1 35734 10 prologue_end         # schedule.mlir:35734:10
	movq	16(%rsi), %rdi
	.loc	1 35735 5                       # schedule.mlir:35735:5
	callq	counterPLevels@PLT
	.loc	1 35736 5 epilogue_begin        # schedule.mlir:35736:5
	popq	%rax
	.cfi_def_cfa_offset 8
	retq
.Ltmp83:
.Lfunc_end41:
	.size	iara_node_wrapper_142_counterPLevels, .Lfunc_end41-iara_node_wrapper_142_counterPLevels
	.cfi_endproc
                                        # -- End function
	.globl	iara_node_wrapper_143_row_filter_transpose2x_1 # -- Begin function iara_node_wrapper_143_row_filter_transpose2x_1
	.p2align	4
	.type	iara_node_wrapper_143_row_filter_transpose2x_1,@function
iara_node_wrapper_143_row_filter_transpose2x_1: # @iara_node_wrapper_143_row_filter_transpose2x_1
.Lfunc_begin42:
	.loc	1 35738 0                       # schedule.mlir:35738:0
	.cfi_startproc
# %bb.0:
	pushq	%rax
	.cfi_def_cfa_offset 16
	movq	%rsi, %rax
.Ltmp84:
	.loc	1 35741 10 prologue_end         # schedule.mlir:35741:10
	movq	16(%rax), %rdi
	.loc	1 35744 10                      # schedule.mlir:35744:10
	movq	48(%rax), %rsi
	.loc	1 35747 10                      # schedule.mlir:35747:10
	movq	80(%rax), %rdx
	.loc	1 35750 11                      # schedule.mlir:35750:11
	movq	112(%rax), %rcx
	.loc	1 35753 11                      # schedule.mlir:35753:11
	movq	144(%rax), %r8
	.loc	1 35756 11                      # schedule.mlir:35756:11
	movq	176(%rax), %r9
	.loc	1 35757 5                       # schedule.mlir:35757:5
	callq	row_filter_transpose2x_1@PLT
	.loc	1 35758 5 epilogue_begin        # schedule.mlir:35758:5
	popq	%rax
	.cfi_def_cfa_offset 8
	retq
.Ltmp85:
.Lfunc_end42:
	.size	iara_node_wrapper_143_row_filter_transpose2x_1, .Lfunc_end42-iara_node_wrapper_143_row_filter_transpose2x_1
	.cfi_endproc
                                        # -- End function
	.globl	iara_node_wrapper_144_row_filter_transpose2x_2 # -- Begin function iara_node_wrapper_144_row_filter_transpose2x_2
	.p2align	4
	.type	iara_node_wrapper_144_row_filter_transpose2x_2,@function
iara_node_wrapper_144_row_filter_transpose2x_2: # @iara_node_wrapper_144_row_filter_transpose2x_2
.Lfunc_begin43:
	.loc	1 35760 0                       # schedule.mlir:35760:0
	.cfi_startproc
# %bb.0:
	pushq	%rax
	.cfi_def_cfa_offset 16
	movq	%rsi, %rax
.Ltmp86:
	.loc	1 35763 10 prologue_end         # schedule.mlir:35763:10
	movq	16(%rax), %rdi
	.loc	1 35766 10                      # schedule.mlir:35766:10
	movq	48(%rax), %rsi
	.loc	1 35769 10                      # schedule.mlir:35769:10
	movq	80(%rax), %rdx
	.loc	1 35772 11                      # schedule.mlir:35772:11
	movq	112(%rax), %rcx
	.loc	1 35775 11                      # schedule.mlir:35775:11
	movq	144(%rax), %r8
	.loc	1 35776 5                       # schedule.mlir:35776:5
	callq	row_filter_transpose2x_2@PLT
	.loc	1 35777 5 epilogue_begin        # schedule.mlir:35777:5
	popq	%rax
	.cfi_def_cfa_offset 8
	retq
.Ltmp87:
.Lfunc_end43:
	.size	iara_node_wrapper_144_row_filter_transpose2x_2, .Lfunc_end43-iara_node_wrapper_144_row_filter_transpose2x_2
	.cfi_endproc
                                        # -- End function
	.globl	iara_node_wrapper_145_BarrierTranspose2x_1 # -- Begin function iara_node_wrapper_145_BarrierTranspose2x_1
	.p2align	4
	.type	iara_node_wrapper_145_BarrierTranspose2x_1,@function
iara_node_wrapper_145_BarrierTranspose2x_1: # @iara_node_wrapper_145_BarrierTranspose2x_1
.Lfunc_begin44:
	.loc	1 35779 0                       # schedule.mlir:35779:0
	.cfi_startproc
# %bb.0:
	pushq	%rax
	.cfi_def_cfa_offset 16
.Ltmp88:
	.loc	1 35782 10 prologue_end         # schedule.mlir:35782:10
	movq	16(%rsi), %rdi
	.loc	1 35785 10                      # schedule.mlir:35785:10
	movq	48(%rsi), %rsi
	.loc	1 35786 5                       # schedule.mlir:35786:5
	callq	BarrierTranspose2x_1@PLT
	.loc	1 35787 5 epilogue_begin        # schedule.mlir:35787:5
	popq	%rax
	.cfi_def_cfa_offset 8
	retq
.Ltmp89:
.Lfunc_end44:
	.size	iara_node_wrapper_145_BarrierTranspose2x_1, .Lfunc_end44-iara_node_wrapper_145_BarrierTranspose2x_1
	.cfi_endproc
                                        # -- End function
	.globl	iara_node_wrapper_146_BarrierTranspose2x_2 # -- Begin function iara_node_wrapper_146_BarrierTranspose2x_2
	.p2align	4
	.type	iara_node_wrapper_146_BarrierTranspose2x_2,@function
iara_node_wrapper_146_BarrierTranspose2x_2: # @iara_node_wrapper_146_BarrierTranspose2x_2
.Lfunc_begin45:
	.loc	1 35789 0                       # schedule.mlir:35789:0
	.cfi_startproc
# %bb.0:
	pushq	%rax
	.cfi_def_cfa_offset 16
.Ltmp90:
	.loc	1 35792 10 prologue_end         # schedule.mlir:35792:10
	movq	16(%rsi), %rdi
	.loc	1 35795 10                      # schedule.mlir:35795:10
	movq	48(%rsi), %rsi
	.loc	1 35796 5                       # schedule.mlir:35796:5
	callq	BarrierTranspose2x_2@PLT
	.loc	1 35797 5 epilogue_begin        # schedule.mlir:35797:5
	popq	%rax
	.cfi_def_cfa_offset 8
	retq
.Ltmp91:
.Lfunc_end45:
	.size	iara_node_wrapper_146_BarrierTranspose2x_2, .Lfunc_end45-iara_node_wrapper_146_BarrierTranspose2x_2
	.cfi_endproc
                                        # -- End function
	.globl	iara_node_wrapper_147_row_filter_transpose_1 # -- Begin function iara_node_wrapper_147_row_filter_transpose_1
	.p2align	4
	.type	iara_node_wrapper_147_row_filter_transpose_1,@function
iara_node_wrapper_147_row_filter_transpose_1: # @iara_node_wrapper_147_row_filter_transpose_1
.Lfunc_begin46:
	.loc	1 35799 0                       # schedule.mlir:35799:0
	.cfi_startproc
# %bb.0:
	pushq	%rax
	.cfi_def_cfa_offset 16
	movq	%rsi, %rax
.Ltmp92:
	.loc	1 35802 10 prologue_end         # schedule.mlir:35802:10
	movq	16(%rax), %rdi
	.loc	1 35805 10                      # schedule.mlir:35805:10
	movq	48(%rax), %rsi
	.loc	1 35808 10                      # schedule.mlir:35808:10
	movq	80(%rax), %rdx
	.loc	1 35811 11                      # schedule.mlir:35811:11
	movq	112(%rax), %rcx
	.loc	1 35814 11                      # schedule.mlir:35814:11
	movq	144(%rax), %r8
	.loc	1 35817 11                      # schedule.mlir:35817:11
	movq	176(%rax), %r9
	.loc	1 35818 5                       # schedule.mlir:35818:5
	callq	row_filter_transpose_1@PLT
	.loc	1 35819 5 epilogue_begin        # schedule.mlir:35819:5
	popq	%rax
	.cfi_def_cfa_offset 8
	retq
.Ltmp93:
.Lfunc_end46:
	.size	iara_node_wrapper_147_row_filter_transpose_1, .Lfunc_end46-iara_node_wrapper_147_row_filter_transpose_1
	.cfi_endproc
                                        # -- End function
	.globl	iara_node_wrapper_148_row_filter_transpose_2 # -- Begin function iara_node_wrapper_148_row_filter_transpose_2
	.p2align	4
	.type	iara_node_wrapper_148_row_filter_transpose_2,@function
iara_node_wrapper_148_row_filter_transpose_2: # @iara_node_wrapper_148_row_filter_transpose_2
.Lfunc_begin47:
	.loc	1 35821 0                       # schedule.mlir:35821:0
	.cfi_startproc
# %bb.0:
	pushq	%rax
	.cfi_def_cfa_offset 16
	movq	%rsi, %rax
.Ltmp94:
	.loc	1 35824 10 prologue_end         # schedule.mlir:35824:10
	movq	16(%rax), %rdi
	.loc	1 35827 10                      # schedule.mlir:35827:10
	movq	48(%rax), %rsi
	.loc	1 35830 10                      # schedule.mlir:35830:10
	movq	80(%rax), %rdx
	.loc	1 35833 11                      # schedule.mlir:35833:11
	movq	112(%rax), %rcx
	.loc	1 35836 11                      # schedule.mlir:35836:11
	movq	144(%rax), %r8
	.loc	1 35837 5                       # schedule.mlir:35837:5
	callq	row_filter_transpose_2@PLT
	.loc	1 35838 5 epilogue_begin        # schedule.mlir:35838:5
	popq	%rax
	.cfi_def_cfa_offset 8
	retq
.Ltmp95:
.Lfunc_end47:
	.size	iara_node_wrapper_148_row_filter_transpose_2, .Lfunc_end47-iara_node_wrapper_148_row_filter_transpose_2
	.cfi_endproc
                                        # -- End function
	.globl	iara_node_wrapper_149_BarrierTranspose_1 # -- Begin function iara_node_wrapper_149_BarrierTranspose_1
	.p2align	4
	.type	iara_node_wrapper_149_BarrierTranspose_1,@function
iara_node_wrapper_149_BarrierTranspose_1: # @iara_node_wrapper_149_BarrierTranspose_1
.Lfunc_begin48:
	.loc	1 35840 0                       # schedule.mlir:35840:0
	.cfi_startproc
# %bb.0:
	pushq	%rax
	.cfi_def_cfa_offset 16
.Ltmp96:
	.loc	1 35843 10 prologue_end         # schedule.mlir:35843:10
	movq	16(%rsi), %rdi
	.loc	1 35846 10                      # schedule.mlir:35846:10
	movq	48(%rsi), %rsi
	.loc	1 35847 5                       # schedule.mlir:35847:5
	callq	BarrierTranspose_1@PLT
	.loc	1 35848 5 epilogue_begin        # schedule.mlir:35848:5
	popq	%rax
	.cfi_def_cfa_offset 8
	retq
.Ltmp97:
.Lfunc_end48:
	.size	iara_node_wrapper_149_BarrierTranspose_1, .Lfunc_end48-iara_node_wrapper_149_BarrierTranspose_1
	.cfi_endproc
                                        # -- End function
	.globl	iara_node_wrapper_150_BarrierTranspose_2 # -- Begin function iara_node_wrapper_150_BarrierTranspose_2
	.p2align	4
	.type	iara_node_wrapper_150_BarrierTranspose_2,@function
iara_node_wrapper_150_BarrierTranspose_2: # @iara_node_wrapper_150_BarrierTranspose_2
.Lfunc_begin49:
	.loc	1 35850 0                       # schedule.mlir:35850:0
	.cfi_startproc
# %bb.0:
	pushq	%rax
	.cfi_def_cfa_offset 16
.Ltmp98:
	.loc	1 35853 10 prologue_end         # schedule.mlir:35853:10
	movq	16(%rsi), %rdi
	.loc	1 35856 10                      # schedule.mlir:35856:10
	movq	48(%rsi), %rsi
	.loc	1 35857 5                       # schedule.mlir:35857:5
	callq	BarrierTranspose_2@PLT
	.loc	1 35858 5 epilogue_begin        # schedule.mlir:35858:5
	popq	%rax
	.cfi_def_cfa_offset 8
	retq
.Ltmp99:
.Lfunc_end49:
	.size	iara_node_wrapper_150_BarrierTranspose_2, .Lfunc_end49-iara_node_wrapper_150_BarrierTranspose_2
	.cfi_endproc
                                        # -- End function
	.globl	iara_node_wrapper_151_filename1 # -- Begin function iara_node_wrapper_151_filename1
	.p2align	4
	.type	iara_node_wrapper_151_filename1,@function
iara_node_wrapper_151_filename1:        # @iara_node_wrapper_151_filename1
.Lfunc_begin50:
	.loc	1 35860 0                       # schedule.mlir:35860:0
	.cfi_startproc
# %bb.0:
	pushq	%rax
	.cfi_def_cfa_offset 16
.Ltmp100:
	.loc	1 35863 10 prologue_end         # schedule.mlir:35863:10
	movq	16(%rsi), %rdi
	.loc	1 35864 5                       # schedule.mlir:35864:5
	callq	filename1@PLT
	.loc	1 35865 5 epilogue_begin        # schedule.mlir:35865:5
	popq	%rax
	.cfi_def_cfa_offset 8
	retq
.Ltmp101:
.Lfunc_end50:
	.size	iara_node_wrapper_151_filename1, .Lfunc_end50-iara_node_wrapper_151_filename1
	.cfi_endproc
                                        # -- End function
	.globl	"iara_node_wrapper_152_iara_broadcast_tensor<1400x{i32,i32,f32,f32,f32,f32,f32,f32,f32,f32,f32,!llvm.array<128 x f32>}>_1io_1" # -- Begin function iara_node_wrapper_152_iara_broadcast_tensor<1400x{i32,i32,f32,f32,f32,f32,f32,f32,f32,f32,f32,!llvm.array<128 x f32>}>_1io_1
	.p2align	4
	.type	"iara_node_wrapper_152_iara_broadcast_tensor<1400x{i32,i32,f32,f32,f32,f32,f32,f32,f32,f32,f32,!llvm.array<128 x f32>}>_1io_1",@function
"iara_node_wrapper_152_iara_broadcast_tensor<1400x{i32,i32,f32,f32,f32,f32,f32,f32,f32,f32,f32,!llvm.array<128 x f32>}>_1io_1": # @"iara_node_wrapper_152_iara_broadcast_tensor<1400x{i32,i32,f32,f32,f32,f32,f32,f32,f32,f32,f32,!llvm.array<128 x f32>}>_1io_1"
.Lfunc_begin51:
	.loc	1 35867 0                       # schedule.mlir:35867:0
	.cfi_startproc
# %bb.0:
	pushq	%rax
	.cfi_def_cfa_offset 16
	movq	%rsi, %rax
.Ltmp102:
	.loc	1 35870 10 prologue_end         # schedule.mlir:35870:10
	movq	16(%rax), %rdi
	.loc	1 35873 10                      # schedule.mlir:35873:10
	movq	48(%rax), %rsi
	.loc	1 35876 10                      # schedule.mlir:35876:10
	movq	80(%rax), %rdx
	.loc	1 35877 5                       # schedule.mlir:35877:5
	callq	"iara_broadcast_tensor<1400x{i32,i32,f32,f32,f32,f32,f32,f32,f32,f32,f32,!llvm.array<128 x f32>}>_1io_1"@PLT
	.loc	1 35878 5 epilogue_begin        # schedule.mlir:35878:5
	popq	%rax
	.cfi_def_cfa_offset 8
	retq
.Ltmp103:
.Lfunc_end51:
	.size	"iara_node_wrapper_152_iara_broadcast_tensor<1400x{i32,i32,f32,f32,f32,f32,f32,f32,f32,f32,f32,!llvm.array<128 x f32>}>_1io_1", .Lfunc_end51-"iara_node_wrapper_152_iara_broadcast_tensor<1400x{i32,i32,f32,f32,f32,f32,f32,f32,f32,f32,f32,!llvm.array<128 x f32>}>_1io_1"
	.cfi_endproc
                                        # -- End function
	.globl	"iara_node_wrapper_153_iara_broadcast_tensor<1xi32>_1io_1" # -- Begin function iara_node_wrapper_153_iara_broadcast_tensor<1xi32>_1io_1
	.p2align	4
	.type	"iara_node_wrapper_153_iara_broadcast_tensor<1xi32>_1io_1",@function
"iara_node_wrapper_153_iara_broadcast_tensor<1xi32>_1io_1": # @"iara_node_wrapper_153_iara_broadcast_tensor<1xi32>_1io_1"
.Lfunc_begin52:
	.loc	1 35880 0                       # schedule.mlir:35880:0
	.cfi_startproc
# %bb.0:
	pushq	%rax
	.cfi_def_cfa_offset 16
	movq	%rsi, %rax
.Ltmp104:
	.loc	1 35883 10 prologue_end         # schedule.mlir:35883:10
	movq	16(%rax), %rdi
	.loc	1 35886 10                      # schedule.mlir:35886:10
	movq	48(%rax), %rsi
	.loc	1 35889 10                      # schedule.mlir:35889:10
	movq	80(%rax), %rdx
	.loc	1 35890 5                       # schedule.mlir:35890:5
	callq	"iara_broadcast_tensor<1xi32>_1io_1"@PLT
	.loc	1 35891 5 epilogue_begin        # schedule.mlir:35891:5
	popq	%rax
	.cfi_def_cfa_offset 8
	retq
.Ltmp105:
.Lfunc_end52:
	.size	"iara_node_wrapper_153_iara_broadcast_tensor<1xi32>_1io_1", .Lfunc_end52-"iara_node_wrapper_153_iara_broadcast_tensor<1xi32>_1io_1"
	.cfi_endproc
                                        # -- End function
	.globl	iara_node_wrapper_154_export_keypoints_to_key_file # -- Begin function iara_node_wrapper_154_export_keypoints_to_key_file
	.p2align	4
	.type	iara_node_wrapper_154_export_keypoints_to_key_file,@function
iara_node_wrapper_154_export_keypoints_to_key_file: # @iara_node_wrapper_154_export_keypoints_to_key_file
.Lfunc_begin53:
	.loc	1 35893 0                       # schedule.mlir:35893:0
	.cfi_startproc
# %bb.0:
	pushq	%rax
	.cfi_def_cfa_offset 16
	movq	%rsi, %rax
.Ltmp106:
	.loc	1 35896 10 prologue_end         # schedule.mlir:35896:10
	movq	16(%rax), %rdi
	.loc	1 35899 10                      # schedule.mlir:35899:10
	movq	48(%rax), %rsi
	.loc	1 35902 10                      # schedule.mlir:35902:10
	movq	80(%rax), %rdx
	.loc	1 35903 5                       # schedule.mlir:35903:5
	callq	export_keypoints_to_key_file@PLT
	.loc	1 35904 5 epilogue_begin        # schedule.mlir:35904:5
	popq	%rax
	.cfi_def_cfa_offset 8
	retq
.Ltmp107:
.Lfunc_end53:
	.size	iara_node_wrapper_154_export_keypoints_to_key_file, .Lfunc_end53-iara_node_wrapper_154_export_keypoints_to_key_file
	.cfi_endproc
                                        # -- End function
	.globl	"iara_broadcast_tensor<1xi32>_1io_1" # -- Begin function iara_broadcast_tensor<1xi32>_1io_1
	.p2align	4
	.type	"iara_broadcast_tensor<1xi32>_1io_1",@function
"iara_broadcast_tensor<1xi32>_1io_1":   # @"iara_broadcast_tensor<1xi32>_1io_1"
.Lfunc_begin54:
	.cfi_startproc
# %bb.0:
	.loc	1 35931 5 prologue_end          # schedule.mlir:35931:5
	movl	(%rdi), %eax
	movl	%eax, (%rsi)
	.loc	1 35932 10                      # schedule.mlir:35932:10
	addq	$4, %rsi
	.loc	1 35933 5                       # schedule.mlir:35933:5
	movl	(%rdi), %eax
	movl	%eax, (%rsi)
	.loc	1 35934 5                       # schedule.mlir:35934:5
	movl	(%rdi), %eax
	movl	%eax, (%rdx)
	.loc	1 35935 10                      # schedule.mlir:35935:10
	addq	$4, %rdx
	.loc	1 35936 5                       # schedule.mlir:35936:5
	movl	(%rdi), %eax
	movl	%eax, (%rdx)
	.loc	1 35937 5                       # schedule.mlir:35937:5
	retq
.Ltmp108:
.Lfunc_end54:
	.size	"iara_broadcast_tensor<1xi32>_1io_1", .Lfunc_end54-"iara_broadcast_tensor<1xi32>_1io_1"
	.cfi_endproc
                                        # -- End function
	.globl	"iara_broadcast_tensor<1400x{i32,i32,f32,f32,f32,f32,f32,f32,f32,f32,f32,!llvm.array<128 x f32>}>_1io_1" # -- Begin function iara_broadcast_tensor<1400x{i32,i32,f32,f32,f32,f32,f32,f32,f32,f32,f32,!llvm.array<128 x f32>}>_1io_1
	.p2align	4
	.type	"iara_broadcast_tensor<1400x{i32,i32,f32,f32,f32,f32,f32,f32,f32,f32,f32,!llvm.array<128 x f32>}>_1io_1",@function
"iara_broadcast_tensor<1400x{i32,i32,f32,f32,f32,f32,f32,f32,f32,f32,f32,!llvm.array<128 x f32>}>_1io_1": # @"iara_broadcast_tensor<1400x{i32,i32,f32,f32,f32,f32,f32,f32,f32,f32,f32,!llvm.array<128 x f32>}>_1io_1"
.Lfunc_begin55:
	.cfi_startproc
# %bb.0:
	.loc	1 35941 5 prologue_end          # schedule.mlir:35941:5
	retq
.Ltmp109:
.Lfunc_end55:
	.size	"iara_broadcast_tensor<1400x{i32,i32,f32,f32,f32,f32,f32,f32,f32,f32,f32,!llvm.array<128 x f32>}>_1io_1", .Lfunc_end55-"iara_broadcast_tensor<1400x{i32,i32,f32,f32,f32,f32,f32,f32,f32,f32,f32,!llvm.array<128 x f32>}>_1io_1"
	.cfi_endproc
                                        # -- End function
	.globl	"iara_broadcast_tensor<512000xi8>_1io_1" # -- Begin function iara_broadcast_tensor<512000xi8>_1io_1
	.p2align	4
	.type	"iara_broadcast_tensor<512000xi8>_1io_1",@function
"iara_broadcast_tensor<512000xi8>_1io_1": # @"iara_broadcast_tensor<512000xi8>_1io_1"
.Lfunc_begin56:
	.cfi_startproc
# %bb.0:
	.loc	1 35945 5 prologue_end          # schedule.mlir:35945:5
	retq
.Ltmp110:
.Lfunc_end56:
	.size	"iara_broadcast_tensor<512000xi8>_1io_1", .Lfunc_end56-"iara_broadcast_tensor<512000xi8>_1io_1"
	.cfi_endproc
                                        # -- End function
	.globl	"iara_broadcast_tensor<512xi8>_1io_1_1" # -- Begin function iara_broadcast_tensor<512xi8>_1io_1_1
	.p2align	4
	.type	"iara_broadcast_tensor<512xi8>_1io_1_1",@function
"iara_broadcast_tensor<512xi8>_1io_1_1": # @"iara_broadcast_tensor<512xi8>_1io_1_1"
.Lfunc_begin57:
	.cfi_startproc
# %bb.0:
	.loc	1 35949 5 prologue_end          # schedule.mlir:35949:5
	retq
.Ltmp111:
.Lfunc_end57:
	.size	"iara_broadcast_tensor<512xi8>_1io_1_1", .Lfunc_end57-"iara_broadcast_tensor<512xi8>_1io_1_1"
	.cfi_endproc
                                        # -- End function
	.globl	"iara_broadcast_tensor<13652500xf32>_4" # -- Begin function iara_broadcast_tensor<13652500xf32>_4
	.p2align	4
	.type	"iara_broadcast_tensor<13652500xf32>_4",@function
"iara_broadcast_tensor<13652500xf32>_4": # @"iara_broadcast_tensor<13652500xf32>_4"
.Lfunc_begin58:
	.cfi_startproc
# %bb.0:
	.loc	1 35953 5 prologue_end          # schedule.mlir:35953:5
	retq
.Ltmp112:
.Lfunc_end58:
	.size	"iara_broadcast_tensor<13652500xf32>_4", .Lfunc_end58-"iara_broadcast_tensor<13652500xf32>_4"
	.cfi_endproc
                                        # -- End function
	.globl	"iara_broadcast_tensor<6xi32>_4" # -- Begin function iara_broadcast_tensor<6xi32>_4
	.p2align	4
	.type	"iara_broadcast_tensor<6xi32>_4",@function
"iara_broadcast_tensor<6xi32>_4":       # @"iara_broadcast_tensor<6xi32>_4"
.Lfunc_begin59:
	.cfi_startproc
# %bb.0:
	.loc	1 35957 5 prologue_end          # schedule.mlir:35957:5
	retq
.Ltmp113:
.Lfunc_end59:
	.size	"iara_broadcast_tensor<6xi32>_4", .Lfunc_end59-"iara_broadcast_tensor<6xi32>_4"
	.cfi_endproc
                                        # -- End function
	.globl	"iara_broadcast_tensor<1xi32>_1io_6" # -- Begin function iara_broadcast_tensor<1xi32>_1io_6
	.p2align	4
	.type	"iara_broadcast_tensor<1xi32>_1io_6",@function
"iara_broadcast_tensor<1xi32>_1io_6":   # @"iara_broadcast_tensor<1xi32>_1io_6"
.Lfunc_begin60:
	.cfi_startproc
# %bb.0:
	.loc	1 35961 5 prologue_end          # schedule.mlir:35961:5
	movl	(%rdi), %eax
	movl	%eax, (%rsi)
	.loc	1 35962 10                      # schedule.mlir:35962:10
	addq	$4, %rsi
	.loc	1 35963 5                       # schedule.mlir:35963:5
	movl	(%rdi), %eax
	movl	%eax, (%rsi)
	.loc	1 35964 5                       # schedule.mlir:35964:5
	movl	(%rdi), %eax
	movl	%eax, (%rdx)
	.loc	1 35965 10                      # schedule.mlir:35965:10
	addq	$4, %rdx
	.loc	1 35966 5                       # schedule.mlir:35966:5
	movl	(%rdi), %eax
	movl	%eax, (%rdx)
	.loc	1 35967 5                       # schedule.mlir:35967:5
	retq
.Ltmp114:
.Lfunc_end60:
	.size	"iara_broadcast_tensor<1xi32>_1io_6", .Lfunc_end60-"iara_broadcast_tensor<1xi32>_1io_6"
	.cfi_endproc
                                        # -- End function
	.globl	"iara_broadcast_tensor<32000xf32>_1io_1" # -- Begin function iara_broadcast_tensor<32000xf32>_1io_1
	.p2align	4
	.type	"iara_broadcast_tensor<32000xf32>_1io_1",@function
"iara_broadcast_tensor<32000xf32>_1io_1": # @"iara_broadcast_tensor<32000xf32>_1io_1"
.Lfunc_begin61:
	.cfi_startproc
# %bb.0:
	.loc	1 35971 5 prologue_end          # schedule.mlir:35971:5
	retq
.Ltmp115:
.Lfunc_end61:
	.size	"iara_broadcast_tensor<32000xf32>_1io_1", .Lfunc_end61-"iara_broadcast_tensor<32000xf32>_1io_1"
	.cfi_endproc
                                        # -- End function
	.globl	"iara_broadcast_tensor<128000xf32>_1io_1" # -- Begin function iara_broadcast_tensor<128000xf32>_1io_1
	.p2align	4
	.type	"iara_broadcast_tensor<128000xf32>_1io_1",@function
"iara_broadcast_tensor<128000xf32>_1io_1": # @"iara_broadcast_tensor<128000xf32>_1io_1"
.Lfunc_begin62:
	.cfi_startproc
# %bb.0:
	.loc	1 35975 5 prologue_end          # schedule.mlir:35975:5
	retq
.Ltmp116:
.Lfunc_end62:
	.size	"iara_broadcast_tensor<128000xf32>_1io_1", .Lfunc_end62-"iara_broadcast_tensor<128000xf32>_1io_1"
	.cfi_endproc
                                        # -- End function
	.globl	"iara_broadcast_tensor<2048000xf32>_1io_1" # -- Begin function iara_broadcast_tensor<2048000xf32>_1io_1
	.p2align	4
	.type	"iara_broadcast_tensor<2048000xf32>_1io_1",@function
"iara_broadcast_tensor<2048000xf32>_1io_1": # @"iara_broadcast_tensor<2048000xf32>_1io_1"
.Lfunc_begin63:
	.cfi_startproc
# %bb.0:
	.loc	1 35979 5 prologue_end          # schedule.mlir:35979:5
	retq
.Ltmp117:
.Lfunc_end63:
	.size	"iara_broadcast_tensor<2048000xf32>_1io_1", .Lfunc_end63-"iara_broadcast_tensor<2048000xf32>_1io_1"
	.cfi_endproc
                                        # -- End function
	.globl	"iara_broadcast_tensor<512000xf32>_1io_1" # -- Begin function iara_broadcast_tensor<512000xf32>_1io_1
	.p2align	4
	.type	"iara_broadcast_tensor<512000xf32>_1io_1",@function
"iara_broadcast_tensor<512000xf32>_1io_1": # @"iara_broadcast_tensor<512000xf32>_1io_1"
.Lfunc_begin64:
	.cfi_startproc
# %bb.0:
	.loc	1 35983 5 prologue_end          # schedule.mlir:35983:5
	retq
.Ltmp118:
.Lfunc_end64:
	.size	"iara_broadcast_tensor<512000xf32>_1io_1", .Lfunc_end64-"iara_broadcast_tensor<512000xf32>_1io_1"
	.cfi_endproc
                                        # -- End function
	.globl	"iara_broadcast_tensor<1xi32>_4_4_1_4_4_1" # -- Begin function iara_broadcast_tensor<1xi32>_4_4_1_4_4_1
	.p2align	4
	.type	"iara_broadcast_tensor<1xi32>_4_4_1_4_4_1",@function
"iara_broadcast_tensor<1xi32>_4_4_1_4_4_1": # @"iara_broadcast_tensor<1xi32>_4_4_1_4_4_1"
.Lfunc_begin65:
	.loc	1 35985 0                       # schedule.mlir:35985:0
	.cfi_startproc
# %bb.0:
	movq	8(%rsp), %rax
.Ltmp119:
	.loc	1 35987 5 prologue_end          # schedule.mlir:35987:5
	movl	(%rdi), %r10d
	movl	%r10d, (%rsi)
	.loc	1 35988 10                      # schedule.mlir:35988:10
	addq	$4, %rsi
	.loc	1 35989 5                       # schedule.mlir:35989:5
	movl	(%rdi), %r10d
	movl	%r10d, (%rsi)
	.loc	1 35990 5                       # schedule.mlir:35990:5
	movl	(%rdi), %esi
	movl	%esi, (%rdx)
	.loc	1 35991 10                      # schedule.mlir:35991:10
	addq	$4, %rdx
	.loc	1 35992 5                       # schedule.mlir:35992:5
	movl	(%rdi), %esi
	movl	%esi, (%rdx)
	.loc	1 35993 5                       # schedule.mlir:35993:5
	movl	(%rdi), %edx
	movl	%edx, (%rcx)
	.loc	1 35994 10                      # schedule.mlir:35994:10
	addq	$4, %rcx
	.loc	1 35995 5                       # schedule.mlir:35995:5
	movl	(%rdi), %edx
	movl	%edx, (%rcx)
	.loc	1 35996 5                       # schedule.mlir:35996:5
	movl	(%rdi), %ecx
	movl	%ecx, (%r8)
	.loc	1 35997 10                      # schedule.mlir:35997:10
	addq	$4, %r8
	.loc	1 35998 5                       # schedule.mlir:35998:5
	movl	(%rdi), %ecx
	movl	%ecx, (%r8)
	.loc	1 35999 5                       # schedule.mlir:35999:5
	movl	(%rdi), %ecx
	movl	%ecx, (%r9)
	.loc	1 36000 10                      # schedule.mlir:36000:10
	addq	$4, %r9
	.loc	1 36001 5                       # schedule.mlir:36001:5
	movl	(%rdi), %ecx
	movl	%ecx, (%r9)
	.loc	1 36002 5                       # schedule.mlir:36002:5
	movl	(%rdi), %ecx
	movl	%ecx, (%rax)
	.loc	1 36003 10                      # schedule.mlir:36003:10
	addq	$4, %rax
	.loc	1 36004 5                       # schedule.mlir:36004:5
	movl	(%rdi), %ecx
	movl	%ecx, (%rax)
	.loc	1 36005 5                       # schedule.mlir:36005:5
	retq
.Ltmp120:
.Lfunc_end65:
	.size	"iara_broadcast_tensor<1xi32>_4_4_1_4_4_1", .Lfunc_end65-"iara_broadcast_tensor<1xi32>_4_4_1_4_4_1"
	.cfi_endproc
                                        # -- End function
	.globl	"iara_broadcast_tensor<32000xf32>_6_1" # -- Begin function iara_broadcast_tensor<32000xf32>_6_1
	.p2align	4
	.type	"iara_broadcast_tensor<32000xf32>_6_1",@function
"iara_broadcast_tensor<32000xf32>_6_1": # @"iara_broadcast_tensor<32000xf32>_6_1"
.Lfunc_begin66:
	.cfi_startproc
# %bb.0:
	.loc	1 36009 5 prologue_end          # schedule.mlir:36009:5
	retq
.Ltmp121:
.Lfunc_end66:
	.size	"iara_broadcast_tensor<32000xf32>_6_1", .Lfunc_end66-"iara_broadcast_tensor<32000xf32>_6_1"
	.cfi_endproc
                                        # -- End function
	.globl	"iara_broadcast_tensor<128000xf32>_4_6" # -- Begin function iara_broadcast_tensor<128000xf32>_4_6
	.p2align	4
	.type	"iara_broadcast_tensor<128000xf32>_4_6",@function
"iara_broadcast_tensor<128000xf32>_4_6": # @"iara_broadcast_tensor<128000xf32>_4_6"
.Lfunc_begin67:
	.cfi_startproc
# %bb.0:
	.loc	1 36013 5 prologue_end          # schedule.mlir:36013:5
	retq
.Ltmp122:
.Lfunc_end67:
	.size	"iara_broadcast_tensor<128000xf32>_4_6", .Lfunc_end67-"iara_broadcast_tensor<128000xf32>_4_6"
	.cfi_endproc
                                        # -- End function
	.globl	"iara_broadcast_tensor<2048000xf32>_6" # -- Begin function iara_broadcast_tensor<2048000xf32>_6
	.p2align	4
	.type	"iara_broadcast_tensor<2048000xf32>_6",@function
"iara_broadcast_tensor<2048000xf32>_6": # @"iara_broadcast_tensor<2048000xf32>_6"
.Lfunc_begin68:
	.cfi_startproc
# %bb.0:
	.loc	1 36017 5 prologue_end          # schedule.mlir:36017:5
	retq
.Ltmp123:
.Lfunc_end68:
	.size	"iara_broadcast_tensor<2048000xf32>_6", .Lfunc_end68-"iara_broadcast_tensor<2048000xf32>_6"
	.cfi_endproc
                                        # -- End function
	.globl	"iara_broadcast_tensor<6xi32>_24_24_24_24_6_24" # -- Begin function iara_broadcast_tensor<6xi32>_24_24_24_24_6_24
	.p2align	4
	.type	"iara_broadcast_tensor<6xi32>_24_24_24_24_6_24",@function
"iara_broadcast_tensor<6xi32>_24_24_24_24_6_24": # @"iara_broadcast_tensor<6xi32>_24_24_24_24_6_24"
.Lfunc_begin69:
	.cfi_startproc
# %bb.0:
	.loc	1 36021 5 prologue_end          # schedule.mlir:36021:5
	retq
.Ltmp124:
.Lfunc_end69:
	.size	"iara_broadcast_tensor<6xi32>_24_24_24_24_6_24", .Lfunc_end69-"iara_broadcast_tensor<6xi32>_24_24_24_24_6_24"
	.cfi_endproc
                                        # -- End function
	.globl	"iara_broadcast_tensor<126xf32>_24_24_24_24_6_24" # -- Begin function iara_broadcast_tensor<126xf32>_24_24_24_24_6_24
	.p2align	4
	.type	"iara_broadcast_tensor<126xf32>_24_24_24_24_6_24",@function
"iara_broadcast_tensor<126xf32>_24_24_24_24_6_24": # @"iara_broadcast_tensor<126xf32>_24_24_24_24_6_24"
.Lfunc_begin70:
	.cfi_startproc
# %bb.0:
	.loc	1 36025 5 prologue_end          # schedule.mlir:36025:5
	retq
.Ltmp125:
.Lfunc_end70:
	.size	"iara_broadcast_tensor<126xf32>_24_24_24_24_6_24", .Lfunc_end70-"iara_broadcast_tensor<126xf32>_24_24_24_24_6_24"
	.cfi_endproc
                                        # -- End function
	.globl	"iara_broadcast_tensor<512000xf32>_1io_6_1" # -- Begin function iara_broadcast_tensor<512000xf32>_1io_6_1
	.p2align	4
	.type	"iara_broadcast_tensor<512000xf32>_1io_6_1",@function
"iara_broadcast_tensor<512000xf32>_1io_6_1": # @"iara_broadcast_tensor<512000xf32>_1io_6_1"
.Lfunc_begin71:
	.cfi_startproc
# %bb.0:
	.loc	1 36029 5 prologue_end          # schedule.mlir:36029:5
	retq
.Ltmp126:
.Lfunc_end71:
	.size	"iara_broadcast_tensor<512000xf32>_1io_6_1", .Lfunc_end71-"iara_broadcast_tensor<512000xf32>_1io_6_1"
	.cfi_endproc
                                        # -- End function
	.globl	"iara_broadcast_tensor<16383000xf32>_4_4" # -- Begin function iara_broadcast_tensor<16383000xf32>_4_4
	.p2align	4
	.type	"iara_broadcast_tensor<16383000xf32>_4_4",@function
"iara_broadcast_tensor<16383000xf32>_4_4": # @"iara_broadcast_tensor<16383000xf32>_4_4"
.Lfunc_begin72:
	.cfi_startproc
# %bb.0:
	.loc	1 36033 5 prologue_end          # schedule.mlir:36033:5
	retq
.Ltmp127:
.Lfunc_end72:
	.size	"iara_broadcast_tensor<16383000xf32>_4_4", .Lfunc_end72-"iara_broadcast_tensor<16383000xf32>_4_4"
	.cfi_endproc
                                        # -- End function
	.globl	"iara_broadcast_tensor<8191500xf32>_4_4" # -- Begin function iara_broadcast_tensor<8191500xf32>_4_4
	.p2align	4
	.type	"iara_broadcast_tensor<8191500xf32>_4_4",@function
"iara_broadcast_tensor<8191500xf32>_4_4": # @"iara_broadcast_tensor<8191500xf32>_4_4"
.Lfunc_begin73:
	.cfi_startproc
# %bb.0:
	.loc	1 36037 5 prologue_end          # schedule.mlir:36037:5
	retq
.Ltmp128:
.Lfunc_end73:
	.size	"iara_broadcast_tensor<8191500xf32>_4_4", .Lfunc_end73-"iara_broadcast_tensor<8191500xf32>_4_4"
	.cfi_endproc
                                        # -- End function
	.type	iara_runtime_data_node_4015401_output_fifos,@object # @iara_runtime_data_node_4015401_output_fifos
	.bss
	.globl	iara_runtime_data_node_4015401_output_fifos
	.p2align	3, 0x0
iara_runtime_data_node_4015401_output_fifos:
	.size	iara_runtime_data_node_4015401_output_fifos, 0

	.type	iara_runtime_data_node_4015401_input_fifos,@object # @iara_runtime_data_node_4015401_input_fifos
	.data
	.globl	iara_runtime_data_node_4015401_input_fifos
	.p2align	3, 0x0
iara_runtime_data_node_4015401_input_fifos:
	.quad	iara_runtime_data__edge_infos+49600
	.size	iara_runtime_data_node_4015401_input_fifos, 8

	.type	iara_runtime_data_node_4015402_output_fifos,@object # @iara_runtime_data_node_4015402_output_fifos
	.bss
	.globl	iara_runtime_data_node_4015402_output_fifos
	.p2align	3, 0x0
iara_runtime_data_node_4015402_output_fifos:
	.size	iara_runtime_data_node_4015402_output_fifos, 0

	.type	iara_runtime_data_node_4015402_input_fifos,@object # @iara_runtime_data_node_4015402_input_fifos
	.data
	.globl	iara_runtime_data_node_4015402_input_fifos
	.p2align	3, 0x0
iara_runtime_data_node_4015402_input_fifos:
	.quad	iara_runtime_data__edge_infos+49440
	.size	iara_runtime_data_node_4015402_input_fifos, 8

	.type	iara_runtime_data_node_4015403_output_fifos,@object # @iara_runtime_data_node_4015403_output_fifos
	.bss
	.globl	iara_runtime_data_node_4015403_output_fifos
	.p2align	3, 0x0
iara_runtime_data_node_4015403_output_fifos:
	.size	iara_runtime_data_node_4015403_output_fifos, 0

	.type	iara_runtime_data_node_4015403_input_fifos,@object # @iara_runtime_data_node_4015403_input_fifos
	.data
	.globl	iara_runtime_data_node_4015403_input_fifos
	.p2align	3, 0x0
iara_runtime_data_node_4015403_input_fifos:
	.quad	iara_runtime_data__edge_infos+49280
	.size	iara_runtime_data_node_4015403_input_fifos, 8

	.type	iara_runtime_data_node_154_output_fifos,@object # @iara_runtime_data_node_154_output_fifos
	.globl	iara_runtime_data_node_154_output_fifos
	.p2align	3, 0x0
iara_runtime_data_node_154_output_fifos:
	.quad	iara_runtime_data__edge_infos+49600
	.quad	iara_runtime_data__edge_infos+49440
	.quad	iara_runtime_data__edge_infos+49280
	.size	iara_runtime_data_node_154_output_fifos, 24

	.type	iara_runtime_data_node_154_input_fifos,@object # @iara_runtime_data_node_154_input_fifos
	.globl	iara_runtime_data_node_154_input_fifos
	.p2align	3, 0x0
iara_runtime_data_node_154_input_fifos:
	.quad	iara_runtime_data__edge_infos+50240
	.quad	iara_runtime_data__edge_infos+51520
	.quad	iara_runtime_data__edge_infos+51680
	.size	iara_runtime_data_node_154_input_fifos, 24

	.type	iara_runtime_data_node_4015301_output_fifos,@object # @iara_runtime_data_node_4015301_output_fifos
	.bss
	.globl	iara_runtime_data_node_4015301_output_fifos
	.p2align	3, 0x0
iara_runtime_data_node_4015301_output_fifos:
	.size	iara_runtime_data_node_4015301_output_fifos, 0

	.type	iara_runtime_data_node_4015301_input_fifos,@object # @iara_runtime_data_node_4015301_input_fifos
	.data
	.globl	iara_runtime_data_node_4015301_input_fifos
	.p2align	3, 0x0
iara_runtime_data_node_4015301_input_fifos:
	.quad	iara_runtime_data__edge_infos+49120
	.size	iara_runtime_data_node_4015301_input_fifos, 8

	.type	iara_runtime_data_node_153_output_fifos,@object # @iara_runtime_data_node_153_output_fifos
	.globl	iara_runtime_data_node_153_output_fifos
	.p2align	3, 0x0
iara_runtime_data_node_153_output_fifos:
	.quad	iara_runtime_data__edge_infos+49120
	.quad	iara_runtime_data__edge_infos+51040
	.quad	iara_runtime_data__edge_infos+51680
	.size	iara_runtime_data_node_153_output_fifos, 24

	.type	iara_runtime_data_node_153_input_fifos,@object # @iara_runtime_data_node_153_input_fifos
	.globl	iara_runtime_data_node_153_input_fifos
	.p2align	3, 0x0
iara_runtime_data_node_153_input_fifos:
	.quad	iara_runtime_data__edge_infos+51360
	.quad	iara_runtime_data__edge_infos+48800
	.quad	iara_runtime_data__edge_infos+48960
	.size	iara_runtime_data_node_153_input_fifos, 24

	.type	iara_runtime_data_node_3015302_output_fifos,@object # @iara_runtime_data_node_3015302_output_fifos
	.globl	iara_runtime_data_node_3015302_output_fifos
	.p2align	3, 0x0
iara_runtime_data_node_3015302_output_fifos:
	.quad	iara_runtime_data__edge_infos+48960
	.size	iara_runtime_data_node_3015302_output_fifos, 8

	.type	iara_runtime_data_node_3015302_input_fifos,@object # @iara_runtime_data_node_3015302_input_fifos
	.bss
	.globl	iara_runtime_data_node_3015302_input_fifos
	.p2align	3, 0x0
iara_runtime_data_node_3015302_input_fifos:
	.size	iara_runtime_data_node_3015302_input_fifos, 0

	.type	iara_runtime_data_node_3015301_output_fifos,@object # @iara_runtime_data_node_3015301_output_fifos
	.data
	.globl	iara_runtime_data_node_3015301_output_fifos
	.p2align	3, 0x0
iara_runtime_data_node_3015301_output_fifos:
	.quad	iara_runtime_data__edge_infos+48800
	.size	iara_runtime_data_node_3015301_output_fifos, 8

	.type	iara_runtime_data_node_3015301_input_fifos,@object # @iara_runtime_data_node_3015301_input_fifos
	.bss
	.globl	iara_runtime_data_node_3015301_input_fifos
	.p2align	3, 0x0
iara_runtime_data_node_3015301_input_fifos:
	.size	iara_runtime_data_node_3015301_input_fifos, 0

	.type	iara_runtime_data_node_4015201_output_fifos,@object # @iara_runtime_data_node_4015201_output_fifos
	.globl	iara_runtime_data_node_4015201_output_fifos
	.p2align	3, 0x0
iara_runtime_data_node_4015201_output_fifos:
	.size	iara_runtime_data_node_4015201_output_fifos, 0

	.type	iara_runtime_data_node_4015201_input_fifos,@object # @iara_runtime_data_node_4015201_input_fifos
	.data
	.globl	iara_runtime_data_node_4015201_input_fifos
	.p2align	3, 0x0
iara_runtime_data_node_4015201_input_fifos:
	.quad	iara_runtime_data__edge_infos+48640
	.size	iara_runtime_data_node_4015201_input_fifos, 8

	.type	iara_runtime_data_node_152_output_fifos,@object # @iara_runtime_data_node_152_output_fifos
	.globl	iara_runtime_data_node_152_output_fifos
	.p2align	3, 0x0
iara_runtime_data_node_152_output_fifos:
	.quad	iara_runtime_data__edge_infos+48640
	.quad	iara_runtime_data__edge_infos+50880
	.quad	iara_runtime_data__edge_infos+51520
	.size	iara_runtime_data_node_152_output_fifos, 24

	.type	iara_runtime_data_node_152_input_fifos,@object # @iara_runtime_data_node_152_input_fifos
	.globl	iara_runtime_data_node_152_input_fifos
	.p2align	3, 0x0
iara_runtime_data_node_152_input_fifos:
	.quad	iara_runtime_data__edge_infos+51200
	.quad	iara_runtime_data__edge_infos+48320
	.quad	iara_runtime_data__edge_infos+48480
	.size	iara_runtime_data_node_152_input_fifos, 24

	.type	iara_runtime_data_node_3015202_output_fifos,@object # @iara_runtime_data_node_3015202_output_fifos
	.globl	iara_runtime_data_node_3015202_output_fifos
	.p2align	3, 0x0
iara_runtime_data_node_3015202_output_fifos:
	.quad	iara_runtime_data__edge_infos+48480
	.size	iara_runtime_data_node_3015202_output_fifos, 8

	.type	iara_runtime_data_node_3015202_input_fifos,@object # @iara_runtime_data_node_3015202_input_fifos
	.bss
	.globl	iara_runtime_data_node_3015202_input_fifos
	.p2align	3, 0x0
iara_runtime_data_node_3015202_input_fifos:
	.size	iara_runtime_data_node_3015202_input_fifos, 0

	.type	iara_runtime_data_node_3015201_output_fifos,@object # @iara_runtime_data_node_3015201_output_fifos
	.data
	.globl	iara_runtime_data_node_3015201_output_fifos
	.p2align	3, 0x0
iara_runtime_data_node_3015201_output_fifos:
	.quad	iara_runtime_data__edge_infos+48320
	.size	iara_runtime_data_node_3015201_output_fifos, 8

	.type	iara_runtime_data_node_3015201_input_fifos,@object # @iara_runtime_data_node_3015201_input_fifos
	.bss
	.globl	iara_runtime_data_node_3015201_input_fifos
	.p2align	3, 0x0
iara_runtime_data_node_3015201_input_fifos:
	.size	iara_runtime_data_node_3015201_input_fifos, 0

	.type	iara_runtime_data_node_151_output_fifos,@object # @iara_runtime_data_node_151_output_fifos
	.data
	.globl	iara_runtime_data_node_151_output_fifos
	.p2align	3, 0x0
iara_runtime_data_node_151_output_fifos:
	.quad	iara_runtime_data__edge_infos+49760
	.size	iara_runtime_data_node_151_output_fifos, 8

	.type	iara_runtime_data_node_151_input_fifos,@object # @iara_runtime_data_node_151_input_fifos
	.globl	iara_runtime_data_node_151_input_fifos
	.p2align	3, 0x0
iara_runtime_data_node_151_input_fifos:
	.quad	iara_runtime_data__edge_infos+48160
	.size	iara_runtime_data_node_151_input_fifos, 8

	.type	iara_runtime_data_node_3015100_output_fifos,@object # @iara_runtime_data_node_3015100_output_fifos
	.globl	iara_runtime_data_node_3015100_output_fifos
	.p2align	3, 0x0
iara_runtime_data_node_3015100_output_fifos:
	.quad	iara_runtime_data__edge_infos+48160
	.size	iara_runtime_data_node_3015100_output_fifos, 8

	.type	iara_runtime_data_node_3015100_input_fifos,@object # @iara_runtime_data_node_3015100_input_fifos
	.bss
	.globl	iara_runtime_data_node_3015100_input_fifos
	.p2align	3, 0x0
iara_runtime_data_node_3015100_input_fifos:
	.size	iara_runtime_data_node_3015100_input_fifos, 0

	.type	iara_runtime_data_node_4015001_output_fifos,@object # @iara_runtime_data_node_4015001_output_fifos
	.globl	iara_runtime_data_node_4015001_output_fifos
	.p2align	3, 0x0
iara_runtime_data_node_4015001_output_fifos:
	.size	iara_runtime_data_node_4015001_output_fifos, 0

	.type	iara_runtime_data_node_4015001_input_fifos,@object # @iara_runtime_data_node_4015001_input_fifos
	.data
	.globl	iara_runtime_data_node_4015001_input_fifos
	.p2align	3, 0x0
iara_runtime_data_node_4015001_input_fifos:
	.quad	iara_runtime_data__edge_infos+32800
	.size	iara_runtime_data_node_4015001_input_fifos, 8

	.type	iara_runtime_data_node_150_output_fifos,@object # @iara_runtime_data_node_150_output_fifos
	.globl	iara_runtime_data_node_150_output_fifos
	.p2align	3, 0x0
iara_runtime_data_node_150_output_fifos:
	.quad	iara_runtime_data__edge_infos+32800
	.quad	iara_runtime_data__edge_infos+47360
	.size	iara_runtime_data_node_150_output_fifos, 16

	.type	iara_runtime_data_node_150_input_fifos,@object # @iara_runtime_data_node_150_input_fifos
	.globl	iara_runtime_data_node_150_input_fifos
	.p2align	3, 0x0
iara_runtime_data_node_150_input_fifos:
	.quad	iara_runtime_data__edge_infos+33760
	.quad	iara_runtime_data__edge_infos+32640
	.size	iara_runtime_data_node_150_input_fifos, 16

	.type	iara_runtime_data_node_3015001_output_fifos,@object # @iara_runtime_data_node_3015001_output_fifos
	.globl	iara_runtime_data_node_3015001_output_fifos
	.p2align	3, 0x0
iara_runtime_data_node_3015001_output_fifos:
	.quad	iara_runtime_data__edge_infos+32640
	.size	iara_runtime_data_node_3015001_output_fifos, 8

	.type	iara_runtime_data_node_3015001_input_fifos,@object # @iara_runtime_data_node_3015001_input_fifos
	.bss
	.globl	iara_runtime_data_node_3015001_input_fifos
	.p2align	3, 0x0
iara_runtime_data_node_3015001_input_fifos:
	.size	iara_runtime_data_node_3015001_input_fifos, 0

	.type	iara_runtime_data_node_4014901_output_fifos,@object # @iara_runtime_data_node_4014901_output_fifos
	.globl	iara_runtime_data_node_4014901_output_fifos
	.p2align	3, 0x0
iara_runtime_data_node_4014901_output_fifos:
	.size	iara_runtime_data_node_4014901_output_fifos, 0

	.type	iara_runtime_data_node_4014901_input_fifos,@object # @iara_runtime_data_node_4014901_input_fifos
	.data
	.globl	iara_runtime_data_node_4014901_input_fifos
	.p2align	3, 0x0
iara_runtime_data_node_4014901_input_fifos:
	.quad	iara_runtime_data__edge_infos+32480
	.size	iara_runtime_data_node_4014901_input_fifos, 8

	.type	iara_runtime_data_node_149_output_fifos,@object # @iara_runtime_data_node_149_output_fifos
	.globl	iara_runtime_data_node_149_output_fifos
	.p2align	3, 0x0
iara_runtime_data_node_149_output_fifos:
	.quad	iara_runtime_data__edge_infos+32480
	.quad	iara_runtime_data__edge_infos+33600
	.size	iara_runtime_data_node_149_output_fifos, 16

	.type	iara_runtime_data_node_149_input_fifos,@object # @iara_runtime_data_node_149_input_fifos
	.globl	iara_runtime_data_node_149_input_fifos
	.p2align	3, 0x0
iara_runtime_data_node_149_input_fifos:
	.quad	iara_runtime_data__edge_infos+33440
	.quad	iara_runtime_data__edge_infos+32320
	.size	iara_runtime_data_node_149_input_fifos, 16

	.type	iara_runtime_data_node_3014901_output_fifos,@object # @iara_runtime_data_node_3014901_output_fifos
	.globl	iara_runtime_data_node_3014901_output_fifos
	.p2align	3, 0x0
iara_runtime_data_node_3014901_output_fifos:
	.quad	iara_runtime_data__edge_infos+32320
	.size	iara_runtime_data_node_3014901_output_fifos, 8

	.type	iara_runtime_data_node_3014901_input_fifos,@object # @iara_runtime_data_node_3014901_input_fifos
	.bss
	.globl	iara_runtime_data_node_3014901_input_fifos
	.p2align	3, 0x0
iara_runtime_data_node_3014901_input_fifos:
	.size	iara_runtime_data_node_3014901_input_fifos, 0

	.type	iara_runtime_data_node_4014801_output_fifos,@object # @iara_runtime_data_node_4014801_output_fifos
	.globl	iara_runtime_data_node_4014801_output_fifos
	.p2align	3, 0x0
iara_runtime_data_node_4014801_output_fifos:
	.size	iara_runtime_data_node_4014801_output_fifos, 0

	.type	iara_runtime_data_node_4014801_input_fifos,@object # @iara_runtime_data_node_4014801_input_fifos
	.data
	.globl	iara_runtime_data_node_4014801_input_fifos
	.p2align	3, 0x0
iara_runtime_data_node_4014801_input_fifos:
	.quad	iara_runtime_data__edge_infos+32160
	.size	iara_runtime_data_node_4014801_input_fifos, 8

	.type	iara_runtime_data_node_4014802_output_fifos,@object # @iara_runtime_data_node_4014802_output_fifos
	.bss
	.globl	iara_runtime_data_node_4014802_output_fifos
	.p2align	3, 0x0
iara_runtime_data_node_4014802_output_fifos:
	.size	iara_runtime_data_node_4014802_output_fifos, 0

	.type	iara_runtime_data_node_4014802_input_fifos,@object # @iara_runtime_data_node_4014802_input_fifos
	.data
	.globl	iara_runtime_data_node_4014802_input_fifos
	.p2align	3, 0x0
iara_runtime_data_node_4014802_input_fifos:
	.quad	iara_runtime_data__edge_infos+32000
	.size	iara_runtime_data_node_4014802_input_fifos, 8

	.type	iara_runtime_data_node_4014803_output_fifos,@object # @iara_runtime_data_node_4014803_output_fifos
	.bss
	.globl	iara_runtime_data_node_4014803_output_fifos
	.p2align	3, 0x0
iara_runtime_data_node_4014803_output_fifos:
	.size	iara_runtime_data_node_4014803_output_fifos, 0

	.type	iara_runtime_data_node_4014803_input_fifos,@object # @iara_runtime_data_node_4014803_input_fifos
	.data
	.globl	iara_runtime_data_node_4014803_input_fifos
	.p2align	3, 0x0
iara_runtime_data_node_4014803_input_fifos:
	.quad	iara_runtime_data__edge_infos+31840
	.size	iara_runtime_data_node_4014803_input_fifos, 8

	.type	iara_runtime_data_node_4014804_output_fifos,@object # @iara_runtime_data_node_4014804_output_fifos
	.bss
	.globl	iara_runtime_data_node_4014804_output_fifos
	.p2align	3, 0x0
iara_runtime_data_node_4014804_output_fifos:
	.size	iara_runtime_data_node_4014804_output_fifos, 0

	.type	iara_runtime_data_node_4014804_input_fifos,@object # @iara_runtime_data_node_4014804_input_fifos
	.data
	.globl	iara_runtime_data_node_4014804_input_fifos
	.p2align	3, 0x0
iara_runtime_data_node_4014804_input_fifos:
	.quad	iara_runtime_data__edge_infos+31680
	.size	iara_runtime_data_node_4014804_input_fifos, 8

	.type	iara_runtime_data_node_148_output_fifos,@object # @iara_runtime_data_node_148_output_fifos
	.globl	iara_runtime_data_node_148_output_fifos
	.p2align	3, 0x0
iara_runtime_data_node_148_output_fifos:
	.quad	iara_runtime_data__edge_infos+32160
	.quad	iara_runtime_data__edge_infos+32000
	.quad	iara_runtime_data__edge_infos+31840
	.quad	iara_runtime_data__edge_infos+31680
	.quad	iara_runtime_data__edge_infos+33760
	.size	iara_runtime_data_node_148_output_fifos, 40

	.type	iara_runtime_data_node_148_input_fifos,@object # @iara_runtime_data_node_148_input_fifos
	.globl	iara_runtime_data_node_148_input_fifos
	.p2align	3, 0x0
iara_runtime_data_node_148_input_fifos:
	.quad	iara_runtime_data__edge_infos+43040
	.quad	iara_runtime_data__edge_infos+33600
	.quad	iara_runtime_data__edge_infos+44000
	.quad	iara_runtime_data__edge_infos+46880
	.quad	iara_runtime_data__edge_infos+31520
	.size	iara_runtime_data_node_148_input_fifos, 40

	.type	iara_runtime_data_node_3014804_output_fifos,@object # @iara_runtime_data_node_3014804_output_fifos
	.globl	iara_runtime_data_node_3014804_output_fifos
	.p2align	3, 0x0
iara_runtime_data_node_3014804_output_fifos:
	.quad	iara_runtime_data__edge_infos+31520
	.size	iara_runtime_data_node_3014804_output_fifos, 8

	.type	iara_runtime_data_node_3014804_input_fifos,@object # @iara_runtime_data_node_3014804_input_fifos
	.bss
	.globl	iara_runtime_data_node_3014804_input_fifos
	.p2align	3, 0x0
iara_runtime_data_node_3014804_input_fifos:
	.size	iara_runtime_data_node_3014804_input_fifos, 0

	.type	iara_runtime_data_node_4014701_output_fifos,@object # @iara_runtime_data_node_4014701_output_fifos
	.globl	iara_runtime_data_node_4014701_output_fifos
	.p2align	3, 0x0
iara_runtime_data_node_4014701_output_fifos:
	.size	iara_runtime_data_node_4014701_output_fifos, 0

	.type	iara_runtime_data_node_4014701_input_fifos,@object # @iara_runtime_data_node_4014701_input_fifos
	.data
	.globl	iara_runtime_data_node_4014701_input_fifos
	.p2align	3, 0x0
iara_runtime_data_node_4014701_input_fifos:
	.quad	iara_runtime_data__edge_infos+31360
	.size	iara_runtime_data_node_4014701_input_fifos, 8

	.type	iara_runtime_data_node_4014702_output_fifos,@object # @iara_runtime_data_node_4014702_output_fifos
	.bss
	.globl	iara_runtime_data_node_4014702_output_fifos
	.p2align	3, 0x0
iara_runtime_data_node_4014702_output_fifos:
	.size	iara_runtime_data_node_4014702_output_fifos, 0

	.type	iara_runtime_data_node_4014702_input_fifos,@object # @iara_runtime_data_node_4014702_input_fifos
	.data
	.globl	iara_runtime_data_node_4014702_input_fifos
	.p2align	3, 0x0
iara_runtime_data_node_4014702_input_fifos:
	.quad	iara_runtime_data__edge_infos+31200
	.size	iara_runtime_data_node_4014702_input_fifos, 8

	.type	iara_runtime_data_node_4014703_output_fifos,@object # @iara_runtime_data_node_4014703_output_fifos
	.bss
	.globl	iara_runtime_data_node_4014703_output_fifos
	.p2align	3, 0x0
iara_runtime_data_node_4014703_output_fifos:
	.size	iara_runtime_data_node_4014703_output_fifos, 0

	.type	iara_runtime_data_node_4014703_input_fifos,@object # @iara_runtime_data_node_4014703_input_fifos
	.data
	.globl	iara_runtime_data_node_4014703_input_fifos
	.p2align	3, 0x0
iara_runtime_data_node_4014703_input_fifos:
	.quad	iara_runtime_data__edge_infos+31040
	.size	iara_runtime_data_node_4014703_input_fifos, 8

	.type	iara_runtime_data_node_4014704_output_fifos,@object # @iara_runtime_data_node_4014704_output_fifos
	.bss
	.globl	iara_runtime_data_node_4014704_output_fifos
	.p2align	3, 0x0
iara_runtime_data_node_4014704_output_fifos:
	.size	iara_runtime_data_node_4014704_output_fifos, 0

	.type	iara_runtime_data_node_4014704_input_fifos,@object # @iara_runtime_data_node_4014704_input_fifos
	.data
	.globl	iara_runtime_data_node_4014704_input_fifos
	.p2align	3, 0x0
iara_runtime_data_node_4014704_input_fifos:
	.quad	iara_runtime_data__edge_infos+30880
	.size	iara_runtime_data_node_4014704_input_fifos, 8

	.type	iara_runtime_data_node_4014705_output_fifos,@object # @iara_runtime_data_node_4014705_output_fifos
	.bss
	.globl	iara_runtime_data_node_4014705_output_fifos
	.p2align	3, 0x0
iara_runtime_data_node_4014705_output_fifos:
	.size	iara_runtime_data_node_4014705_output_fifos, 0

	.type	iara_runtime_data_node_4014705_input_fifos,@object # @iara_runtime_data_node_4014705_input_fifos
	.data
	.globl	iara_runtime_data_node_4014705_input_fifos
	.p2align	3, 0x0
iara_runtime_data_node_4014705_input_fifos:
	.quad	iara_runtime_data__edge_infos+30720
	.size	iara_runtime_data_node_4014705_input_fifos, 8

	.type	iara_runtime_data_node_147_output_fifos,@object # @iara_runtime_data_node_147_output_fifos
	.globl	iara_runtime_data_node_147_output_fifos
	.p2align	3, 0x0
iara_runtime_data_node_147_output_fifos:
	.quad	iara_runtime_data__edge_infos+31360
	.quad	iara_runtime_data__edge_infos+31200
	.quad	iara_runtime_data__edge_infos+31040
	.quad	iara_runtime_data__edge_infos+30880
	.quad	iara_runtime_data__edge_infos+30720
	.quad	iara_runtime_data__edge_infos+33440
	.size	iara_runtime_data_node_147_output_fifos, 48

	.type	iara_runtime_data_node_147_input_fifos,@object # @iara_runtime_data_node_147_input_fifos
	.globl	iara_runtime_data_node_147_input_fifos
	.p2align	3, 0x0
iara_runtime_data_node_147_input_fifos:
	.quad	iara_runtime_data__edge_infos+42880
	.quad	iara_runtime_data__edge_infos+41120
	.quad	iara_runtime_data__edge_infos+43840
	.quad	iara_runtime_data__edge_infos+47520
	.quad	iara_runtime_data__edge_infos+46560
	.quad	iara_runtime_data__edge_infos+30560
	.size	iara_runtime_data_node_147_input_fifos, 48

	.type	iara_runtime_data_node_3014705_output_fifos,@object # @iara_runtime_data_node_3014705_output_fifos
	.globl	iara_runtime_data_node_3014705_output_fifos
	.p2align	3, 0x0
iara_runtime_data_node_3014705_output_fifos:
	.quad	iara_runtime_data__edge_infos+30560
	.size	iara_runtime_data_node_3014705_output_fifos, 8

	.type	iara_runtime_data_node_3014705_input_fifos,@object # @iara_runtime_data_node_3014705_input_fifos
	.bss
	.globl	iara_runtime_data_node_3014705_input_fifos
	.p2align	3, 0x0
iara_runtime_data_node_3014705_input_fifos:
	.size	iara_runtime_data_node_3014705_input_fifos, 0

	.type	iara_runtime_data_node_4014601_output_fifos,@object # @iara_runtime_data_node_4014601_output_fifos
	.globl	iara_runtime_data_node_4014601_output_fifos
	.p2align	3, 0x0
iara_runtime_data_node_4014601_output_fifos:
	.size	iara_runtime_data_node_4014601_output_fifos, 0

	.type	iara_runtime_data_node_4014601_input_fifos,@object # @iara_runtime_data_node_4014601_input_fifos
	.data
	.globl	iara_runtime_data_node_4014601_input_fifos
	.p2align	3, 0x0
iara_runtime_data_node_4014601_input_fifos:
	.quad	iara_runtime_data__edge_infos+30400
	.size	iara_runtime_data_node_4014601_input_fifos, 8

	.type	iara_runtime_data_node_146_output_fifos,@object # @iara_runtime_data_node_146_output_fifos
	.globl	iara_runtime_data_node_146_output_fifos
	.p2align	3, 0x0
iara_runtime_data_node_146_output_fifos:
	.quad	iara_runtime_data__edge_infos+30400
	.quad	iara_runtime_data__edge_infos+47680
	.size	iara_runtime_data_node_146_output_fifos, 16

	.type	iara_runtime_data_node_146_input_fifos,@object # @iara_runtime_data_node_146_input_fifos
	.globl	iara_runtime_data_node_146_input_fifos
	.p2align	3, 0x0
iara_runtime_data_node_146_input_fifos:
	.quad	iara_runtime_data__edge_infos+33280
	.quad	iara_runtime_data__edge_infos+30240
	.size	iara_runtime_data_node_146_input_fifos, 16

	.type	iara_runtime_data_node_3014601_output_fifos,@object # @iara_runtime_data_node_3014601_output_fifos
	.globl	iara_runtime_data_node_3014601_output_fifos
	.p2align	3, 0x0
iara_runtime_data_node_3014601_output_fifos:
	.quad	iara_runtime_data__edge_infos+30240
	.size	iara_runtime_data_node_3014601_output_fifos, 8

	.type	iara_runtime_data_node_3014601_input_fifos,@object # @iara_runtime_data_node_3014601_input_fifos
	.bss
	.globl	iara_runtime_data_node_3014601_input_fifos
	.p2align	3, 0x0
iara_runtime_data_node_3014601_input_fifos:
	.size	iara_runtime_data_node_3014601_input_fifos, 0

	.type	iara_runtime_data_node_4014501_output_fifos,@object # @iara_runtime_data_node_4014501_output_fifos
	.globl	iara_runtime_data_node_4014501_output_fifos
	.p2align	3, 0x0
iara_runtime_data_node_4014501_output_fifos:
	.size	iara_runtime_data_node_4014501_output_fifos, 0

	.type	iara_runtime_data_node_4014501_input_fifos,@object # @iara_runtime_data_node_4014501_input_fifos
	.data
	.globl	iara_runtime_data_node_4014501_input_fifos
	.p2align	3, 0x0
iara_runtime_data_node_4014501_input_fifos:
	.quad	iara_runtime_data__edge_infos+30080
	.size	iara_runtime_data_node_4014501_input_fifos, 8

	.type	iara_runtime_data_node_145_output_fifos,@object # @iara_runtime_data_node_145_output_fifos
	.globl	iara_runtime_data_node_145_output_fifos
	.p2align	3, 0x0
iara_runtime_data_node_145_output_fifos:
	.quad	iara_runtime_data__edge_infos+30080
	.quad	iara_runtime_data__edge_infos+33120
	.size	iara_runtime_data_node_145_output_fifos, 16

	.type	iara_runtime_data_node_145_input_fifos,@object # @iara_runtime_data_node_145_input_fifos
	.globl	iara_runtime_data_node_145_input_fifos
	.p2align	3, 0x0
iara_runtime_data_node_145_input_fifos:
	.quad	iara_runtime_data__edge_infos+32960
	.quad	iara_runtime_data__edge_infos+29920
	.size	iara_runtime_data_node_145_input_fifos, 16

	.type	iara_runtime_data_node_3014501_output_fifos,@object # @iara_runtime_data_node_3014501_output_fifos
	.globl	iara_runtime_data_node_3014501_output_fifos
	.p2align	3, 0x0
iara_runtime_data_node_3014501_output_fifos:
	.quad	iara_runtime_data__edge_infos+29920
	.size	iara_runtime_data_node_3014501_output_fifos, 8

	.type	iara_runtime_data_node_3014501_input_fifos,@object # @iara_runtime_data_node_3014501_input_fifos
	.bss
	.globl	iara_runtime_data_node_3014501_input_fifos
	.p2align	3, 0x0
iara_runtime_data_node_3014501_input_fifos:
	.size	iara_runtime_data_node_3014501_input_fifos, 0

	.type	iara_runtime_data_node_4014401_output_fifos,@object # @iara_runtime_data_node_4014401_output_fifos
	.globl	iara_runtime_data_node_4014401_output_fifos
	.p2align	3, 0x0
iara_runtime_data_node_4014401_output_fifos:
	.size	iara_runtime_data_node_4014401_output_fifos, 0

	.type	iara_runtime_data_node_4014401_input_fifos,@object # @iara_runtime_data_node_4014401_input_fifos
	.data
	.globl	iara_runtime_data_node_4014401_input_fifos
	.p2align	3, 0x0
iara_runtime_data_node_4014401_input_fifos:
	.quad	iara_runtime_data__edge_infos+29760
	.size	iara_runtime_data_node_4014401_input_fifos, 8

	.type	iara_runtime_data_node_4014402_output_fifos,@object # @iara_runtime_data_node_4014402_output_fifos
	.bss
	.globl	iara_runtime_data_node_4014402_output_fifos
	.p2align	3, 0x0
iara_runtime_data_node_4014402_output_fifos:
	.size	iara_runtime_data_node_4014402_output_fifos, 0

	.type	iara_runtime_data_node_4014402_input_fifos,@object # @iara_runtime_data_node_4014402_input_fifos
	.data
	.globl	iara_runtime_data_node_4014402_input_fifos
	.p2align	3, 0x0
iara_runtime_data_node_4014402_input_fifos:
	.quad	iara_runtime_data__edge_infos+29600
	.size	iara_runtime_data_node_4014402_input_fifos, 8

	.type	iara_runtime_data_node_4014403_output_fifos,@object # @iara_runtime_data_node_4014403_output_fifos
	.bss
	.globl	iara_runtime_data_node_4014403_output_fifos
	.p2align	3, 0x0
iara_runtime_data_node_4014403_output_fifos:
	.size	iara_runtime_data_node_4014403_output_fifos, 0

	.type	iara_runtime_data_node_4014403_input_fifos,@object # @iara_runtime_data_node_4014403_input_fifos
	.data
	.globl	iara_runtime_data_node_4014403_input_fifos
	.p2align	3, 0x0
iara_runtime_data_node_4014403_input_fifos:
	.quad	iara_runtime_data__edge_infos+29440
	.size	iara_runtime_data_node_4014403_input_fifos, 8

	.type	iara_runtime_data_node_4014404_output_fifos,@object # @iara_runtime_data_node_4014404_output_fifos
	.bss
	.globl	iara_runtime_data_node_4014404_output_fifos
	.p2align	3, 0x0
iara_runtime_data_node_4014404_output_fifos:
	.size	iara_runtime_data_node_4014404_output_fifos, 0

	.type	iara_runtime_data_node_4014404_input_fifos,@object # @iara_runtime_data_node_4014404_input_fifos
	.data
	.globl	iara_runtime_data_node_4014404_input_fifos
	.p2align	3, 0x0
iara_runtime_data_node_4014404_input_fifos:
	.quad	iara_runtime_data__edge_infos+29280
	.size	iara_runtime_data_node_4014404_input_fifos, 8

	.type	iara_runtime_data_node_144_output_fifos,@object # @iara_runtime_data_node_144_output_fifos
	.globl	iara_runtime_data_node_144_output_fifos
	.p2align	3, 0x0
iara_runtime_data_node_144_output_fifos:
	.quad	iara_runtime_data__edge_infos+29760
	.quad	iara_runtime_data__edge_infos+29600
	.quad	iara_runtime_data__edge_infos+29440
	.quad	iara_runtime_data__edge_infos+29280
	.quad	iara_runtime_data__edge_infos+33280
	.size	iara_runtime_data_node_144_output_fifos, 40

	.type	iara_runtime_data_node_144_input_fifos,@object # @iara_runtime_data_node_144_input_fifos
	.globl	iara_runtime_data_node_144_input_fifos
	.p2align	3, 0x0
iara_runtime_data_node_144_input_fifos:
	.quad	iara_runtime_data__edge_infos+43680
	.quad	iara_runtime_data__edge_infos+33120
	.quad	iara_runtime_data__edge_infos+42720
	.quad	iara_runtime_data__edge_infos+46720
	.quad	iara_runtime_data__edge_infos+29120
	.size	iara_runtime_data_node_144_input_fifos, 40

	.type	iara_runtime_data_node_3014404_output_fifos,@object # @iara_runtime_data_node_3014404_output_fifos
	.globl	iara_runtime_data_node_3014404_output_fifos
	.p2align	3, 0x0
iara_runtime_data_node_3014404_output_fifos:
	.quad	iara_runtime_data__edge_infos+29120
	.size	iara_runtime_data_node_3014404_output_fifos, 8

	.type	iara_runtime_data_node_3014404_input_fifos,@object # @iara_runtime_data_node_3014404_input_fifos
	.bss
	.globl	iara_runtime_data_node_3014404_input_fifos
	.p2align	3, 0x0
iara_runtime_data_node_3014404_input_fifos:
	.size	iara_runtime_data_node_3014404_input_fifos, 0

	.type	iara_runtime_data_node_4014301_output_fifos,@object # @iara_runtime_data_node_4014301_output_fifos
	.globl	iara_runtime_data_node_4014301_output_fifos
	.p2align	3, 0x0
iara_runtime_data_node_4014301_output_fifos:
	.size	iara_runtime_data_node_4014301_output_fifos, 0

	.type	iara_runtime_data_node_4014301_input_fifos,@object # @iara_runtime_data_node_4014301_input_fifos
	.data
	.globl	iara_runtime_data_node_4014301_input_fifos
	.p2align	3, 0x0
iara_runtime_data_node_4014301_input_fifos:
	.quad	iara_runtime_data__edge_infos+28960
	.size	iara_runtime_data_node_4014301_input_fifos, 8

	.type	iara_runtime_data_node_4014302_output_fifos,@object # @iara_runtime_data_node_4014302_output_fifos
	.bss
	.globl	iara_runtime_data_node_4014302_output_fifos
	.p2align	3, 0x0
iara_runtime_data_node_4014302_output_fifos:
	.size	iara_runtime_data_node_4014302_output_fifos, 0

	.type	iara_runtime_data_node_4014302_input_fifos,@object # @iara_runtime_data_node_4014302_input_fifos
	.data
	.globl	iara_runtime_data_node_4014302_input_fifos
	.p2align	3, 0x0
iara_runtime_data_node_4014302_input_fifos:
	.quad	iara_runtime_data__edge_infos+28800
	.size	iara_runtime_data_node_4014302_input_fifos, 8

	.type	iara_runtime_data_node_4014303_output_fifos,@object # @iara_runtime_data_node_4014303_output_fifos
	.bss
	.globl	iara_runtime_data_node_4014303_output_fifos
	.p2align	3, 0x0
iara_runtime_data_node_4014303_output_fifos:
	.size	iara_runtime_data_node_4014303_output_fifos, 0

	.type	iara_runtime_data_node_4014303_input_fifos,@object # @iara_runtime_data_node_4014303_input_fifos
	.data
	.globl	iara_runtime_data_node_4014303_input_fifos
	.p2align	3, 0x0
iara_runtime_data_node_4014303_input_fifos:
	.quad	iara_runtime_data__edge_infos+28640
	.size	iara_runtime_data_node_4014303_input_fifos, 8

	.type	iara_runtime_data_node_4014304_output_fifos,@object # @iara_runtime_data_node_4014304_output_fifos
	.bss
	.globl	iara_runtime_data_node_4014304_output_fifos
	.p2align	3, 0x0
iara_runtime_data_node_4014304_output_fifos:
	.size	iara_runtime_data_node_4014304_output_fifos, 0

	.type	iara_runtime_data_node_4014304_input_fifos,@object # @iara_runtime_data_node_4014304_input_fifos
	.data
	.globl	iara_runtime_data_node_4014304_input_fifos
	.p2align	3, 0x0
iara_runtime_data_node_4014304_input_fifos:
	.quad	iara_runtime_data__edge_infos+28480
	.size	iara_runtime_data_node_4014304_input_fifos, 8

	.type	iara_runtime_data_node_4014305_output_fifos,@object # @iara_runtime_data_node_4014305_output_fifos
	.bss
	.globl	iara_runtime_data_node_4014305_output_fifos
	.p2align	3, 0x0
iara_runtime_data_node_4014305_output_fifos:
	.size	iara_runtime_data_node_4014305_output_fifos, 0

	.type	iara_runtime_data_node_4014305_input_fifos,@object # @iara_runtime_data_node_4014305_input_fifos
	.data
	.globl	iara_runtime_data_node_4014305_input_fifos
	.p2align	3, 0x0
iara_runtime_data_node_4014305_input_fifos:
	.quad	iara_runtime_data__edge_infos+28320
	.size	iara_runtime_data_node_4014305_input_fifos, 8

	.type	iara_runtime_data_node_143_output_fifos,@object # @iara_runtime_data_node_143_output_fifos
	.globl	iara_runtime_data_node_143_output_fifos
	.p2align	3, 0x0
iara_runtime_data_node_143_output_fifos:
	.quad	iara_runtime_data__edge_infos+28960
	.quad	iara_runtime_data__edge_infos+28800
	.quad	iara_runtime_data__edge_infos+28640
	.quad	iara_runtime_data__edge_infos+28480
	.quad	iara_runtime_data__edge_infos+28320
	.quad	iara_runtime_data__edge_infos+32960
	.size	iara_runtime_data_node_143_output_fifos, 48

	.type	iara_runtime_data_node_143_input_fifos,@object # @iara_runtime_data_node_143_input_fifos
	.globl	iara_runtime_data_node_143_input_fifos
	.p2align	3, 0x0
iara_runtime_data_node_143_input_fifos:
	.quad	iara_runtime_data__edge_infos+42560
	.quad	iara_runtime_data__edge_infos+44480
	.quad	iara_runtime_data__edge_infos+43520
	.quad	iara_runtime_data__edge_infos+47840
	.quad	iara_runtime_data__edge_infos+46400
	.quad	iara_runtime_data__edge_infos+28160
	.size	iara_runtime_data_node_143_input_fifos, 48

	.type	iara_runtime_data_node_3014305_output_fifos,@object # @iara_runtime_data_node_3014305_output_fifos
	.globl	iara_runtime_data_node_3014305_output_fifos
	.p2align	3, 0x0
iara_runtime_data_node_3014305_output_fifos:
	.quad	iara_runtime_data__edge_infos+28160
	.size	iara_runtime_data_node_3014305_output_fifos, 8

	.type	iara_runtime_data_node_3014305_input_fifos,@object # @iara_runtime_data_node_3014305_input_fifos
	.bss
	.globl	iara_runtime_data_node_3014305_input_fifos
	.p2align	3, 0x0
iara_runtime_data_node_3014305_input_fifos:
	.size	iara_runtime_data_node_3014305_input_fifos, 0

	.type	iara_runtime_data_node_142_output_fifos,@object # @iara_runtime_data_node_142_output_fifos
	.data
	.globl	iara_runtime_data_node_142_output_fifos
	.p2align	3, 0x0
iara_runtime_data_node_142_output_fifos:
	.quad	iara_runtime_data__edge_infos+41600
	.size	iara_runtime_data_node_142_output_fifos, 8

	.type	iara_runtime_data_node_142_input_fifos,@object # @iara_runtime_data_node_142_input_fifos
	.globl	iara_runtime_data_node_142_input_fifos
	.p2align	3, 0x0
iara_runtime_data_node_142_input_fifos:
	.quad	iara_runtime_data__edge_infos+28000
	.size	iara_runtime_data_node_142_input_fifos, 8

	.type	iara_runtime_data_node_3014200_output_fifos,@object # @iara_runtime_data_node_3014200_output_fifos
	.globl	iara_runtime_data_node_3014200_output_fifos
	.p2align	3, 0x0
iara_runtime_data_node_3014200_output_fifos:
	.quad	iara_runtime_data__edge_infos+28000
	.size	iara_runtime_data_node_3014200_output_fifos, 8

	.type	iara_runtime_data_node_3014200_input_fifos,@object # @iara_runtime_data_node_3014200_input_fifos
	.bss
	.globl	iara_runtime_data_node_3014200_input_fifos
	.p2align	3, 0x0
iara_runtime_data_node_3014200_input_fifos:
	.size	iara_runtime_data_node_3014200_input_fifos, 0

	.type	iara_runtime_data_node_4014101_output_fifos,@object # @iara_runtime_data_node_4014101_output_fifos
	.globl	iara_runtime_data_node_4014101_output_fifos
	.p2align	3, 0x0
iara_runtime_data_node_4014101_output_fifos:
	.size	iara_runtime_data_node_4014101_output_fifos, 0

	.type	iara_runtime_data_node_4014101_input_fifos,@object # @iara_runtime_data_node_4014101_input_fifos
	.data
	.globl	iara_runtime_data_node_4014101_input_fifos
	.p2align	3, 0x0
iara_runtime_data_node_4014101_input_fifos:
	.quad	iara_runtime_data__edge_infos+27840
	.size	iara_runtime_data_node_4014101_input_fifos, 8

	.type	iara_runtime_data_node_141_output_fifos,@object # @iara_runtime_data_node_141_output_fifos
	.globl	iara_runtime_data_node_141_output_fifos
	.p2align	3, 0x0
iara_runtime_data_node_141_output_fifos:
	.quad	iara_runtime_data__edge_infos+27840
	.quad	iara_runtime_data__edge_infos+41440
	.size	iara_runtime_data_node_141_output_fifos, 16

	.type	iara_runtime_data_node_141_input_fifos,@object # @iara_runtime_data_node_141_input_fifos
	.globl	iara_runtime_data_node_141_input_fifos
	.p2align	3, 0x0
iara_runtime_data_node_141_input_fifos:
	.quad	iara_runtime_data__edge_infos+40960
	.quad	iara_runtime_data__edge_infos+27680
	.size	iara_runtime_data_node_141_input_fifos, 16

	.type	iara_runtime_data_node_3014101_output_fifos,@object # @iara_runtime_data_node_3014101_output_fifos
	.globl	iara_runtime_data_node_3014101_output_fifos
	.p2align	3, 0x0
iara_runtime_data_node_3014101_output_fifos:
	.quad	iara_runtime_data__edge_infos+27680
	.size	iara_runtime_data_node_3014101_output_fifos, 8

	.type	iara_runtime_data_node_3014101_input_fifos,@object # @iara_runtime_data_node_3014101_input_fifos
	.bss
	.globl	iara_runtime_data_node_3014101_input_fifos
	.p2align	3, 0x0
iara_runtime_data_node_3014101_input_fifos:
	.size	iara_runtime_data_node_3014101_input_fifos, 0

	.type	iara_runtime_data_node_4014001_output_fifos,@object # @iara_runtime_data_node_4014001_output_fifos
	.globl	iara_runtime_data_node_4014001_output_fifos
	.p2align	3, 0x0
iara_runtime_data_node_4014001_output_fifos:
	.size	iara_runtime_data_node_4014001_output_fifos, 0

	.type	iara_runtime_data_node_4014001_input_fifos,@object # @iara_runtime_data_node_4014001_input_fifos
	.data
	.globl	iara_runtime_data_node_4014001_input_fifos
	.p2align	3, 0x0
iara_runtime_data_node_4014001_input_fifos:
	.quad	iara_runtime_data__edge_infos+27520
	.size	iara_runtime_data_node_4014001_input_fifos, 8

	.type	iara_runtime_data_node_140_output_fifos,@object # @iara_runtime_data_node_140_output_fifos
	.globl	iara_runtime_data_node_140_output_fifos
	.p2align	3, 0x0
iara_runtime_data_node_140_output_fifos:
	.quad	iara_runtime_data__edge_infos+27520
	.quad	iara_runtime_data__edge_infos+48000
	.size	iara_runtime_data_node_140_output_fifos, 16

	.type	iara_runtime_data_node_140_input_fifos,@object # @iara_runtime_data_node_140_input_fifos
	.globl	iara_runtime_data_node_140_input_fifos
	.p2align	3, 0x0
iara_runtime_data_node_140_input_fifos:
	.quad	iara_runtime_data__edge_infos+47040
	.quad	iara_runtime_data__edge_infos+27360
	.size	iara_runtime_data_node_140_input_fifos, 16

	.type	iara_runtime_data_node_3014001_output_fifos,@object # @iara_runtime_data_node_3014001_output_fifos
	.globl	iara_runtime_data_node_3014001_output_fifos
	.p2align	3, 0x0
iara_runtime_data_node_3014001_output_fifos:
	.quad	iara_runtime_data__edge_infos+27360
	.size	iara_runtime_data_node_3014001_output_fifos, 8

	.type	iara_runtime_data_node_3014001_input_fifos,@object # @iara_runtime_data_node_3014001_input_fifos
	.bss
	.globl	iara_runtime_data_node_3014001_input_fifos
	.p2align	3, 0x0
iara_runtime_data_node_3014001_input_fifos:
	.size	iara_runtime_data_node_3014001_input_fifos, 0

	.type	iara_runtime_data_node_4013901_output_fifos,@object # @iara_runtime_data_node_4013901_output_fifos
	.globl	iara_runtime_data_node_4013901_output_fifos
	.p2align	3, 0x0
iara_runtime_data_node_4013901_output_fifos:
	.size	iara_runtime_data_node_4013901_output_fifos, 0

	.type	iara_runtime_data_node_4013901_input_fifos,@object # @iara_runtime_data_node_4013901_input_fifos
	.data
	.globl	iara_runtime_data_node_4013901_input_fifos
	.p2align	3, 0x0
iara_runtime_data_node_4013901_input_fifos:
	.quad	iara_runtime_data__edge_infos+27200
	.size	iara_runtime_data_node_4013901_input_fifos, 8

	.type	iara_runtime_data_node_139_output_fifos,@object # @iara_runtime_data_node_139_output_fifos
	.globl	iara_runtime_data_node_139_output_fifos
	.p2align	3, 0x0
iara_runtime_data_node_139_output_fifos:
	.quad	iara_runtime_data__edge_infos+27200
	.quad	iara_runtime_data__edge_infos+35200
	.size	iara_runtime_data_node_139_output_fifos, 16

	.type	iara_runtime_data_node_139_input_fifos,@object # @iara_runtime_data_node_139_input_fifos
	.globl	iara_runtime_data_node_139_input_fifos
	.p2align	3, 0x0
iara_runtime_data_node_139_input_fifos:
	.quad	iara_runtime_data__edge_infos+38400
	.quad	iara_runtime_data__edge_infos+27040
	.size	iara_runtime_data_node_139_input_fifos, 16

	.type	iara_runtime_data_node_3013901_output_fifos,@object # @iara_runtime_data_node_3013901_output_fifos
	.globl	iara_runtime_data_node_3013901_output_fifos
	.p2align	3, 0x0
iara_runtime_data_node_3013901_output_fifos:
	.quad	iara_runtime_data__edge_infos+27040
	.size	iara_runtime_data_node_3013901_output_fifos, 8

	.type	iara_runtime_data_node_3013901_input_fifos,@object # @iara_runtime_data_node_3013901_input_fifos
	.bss
	.globl	iara_runtime_data_node_3013901_input_fifos
	.p2align	3, 0x0
iara_runtime_data_node_3013901_input_fifos:
	.size	iara_runtime_data_node_3013901_input_fifos, 0

	.type	iara_runtime_data_node_4013801_output_fifos,@object # @iara_runtime_data_node_4013801_output_fifos
	.globl	iara_runtime_data_node_4013801_output_fifos
	.p2align	3, 0x0
iara_runtime_data_node_4013801_output_fifos:
	.size	iara_runtime_data_node_4013801_output_fifos, 0

	.type	iara_runtime_data_node_4013801_input_fifos,@object # @iara_runtime_data_node_4013801_input_fifos
	.data
	.globl	iara_runtime_data_node_4013801_input_fifos
	.p2align	3, 0x0
iara_runtime_data_node_4013801_input_fifos:
	.quad	iara_runtime_data__edge_infos+26880
	.size	iara_runtime_data_node_4013801_input_fifos, 8

	.type	iara_runtime_data_node_138_output_fifos,@object # @iara_runtime_data_node_138_output_fifos
	.globl	iara_runtime_data_node_138_output_fifos
	.p2align	3, 0x0
iara_runtime_data_node_138_output_fifos:
	.quad	iara_runtime_data__edge_infos+26880
	.quad	iara_runtime_data__edge_infos+45760
	.size	iara_runtime_data_node_138_output_fifos, 16

	.type	iara_runtime_data_node_138_input_fifos,@object # @iara_runtime_data_node_138_input_fifos
	.globl	iara_runtime_data_node_138_input_fifos
	.p2align	3, 0x0
iara_runtime_data_node_138_input_fifos:
	.quad	iara_runtime_data__edge_infos+48000
	.quad	iara_runtime_data__edge_infos+26720
	.size	iara_runtime_data_node_138_input_fifos, 16

	.type	iara_runtime_data_node_3013801_output_fifos,@object # @iara_runtime_data_node_3013801_output_fifos
	.globl	iara_runtime_data_node_3013801_output_fifos
	.p2align	3, 0x0
iara_runtime_data_node_3013801_output_fifos:
	.quad	iara_runtime_data__edge_infos+26720
	.size	iara_runtime_data_node_3013801_output_fifos, 8

	.type	iara_runtime_data_node_3013801_input_fifos,@object # @iara_runtime_data_node_3013801_input_fifos
	.bss
	.globl	iara_runtime_data_node_3013801_input_fifos
	.p2align	3, 0x0
iara_runtime_data_node_3013801_input_fifos:
	.size	iara_runtime_data_node_3013801_input_fifos, 0

	.type	iara_runtime_data_node_4013701_output_fifos,@object # @iara_runtime_data_node_4013701_output_fifos
	.globl	iara_runtime_data_node_4013701_output_fifos
	.p2align	3, 0x0
iara_runtime_data_node_4013701_output_fifos:
	.size	iara_runtime_data_node_4013701_output_fifos, 0

	.type	iara_runtime_data_node_4013701_input_fifos,@object # @iara_runtime_data_node_4013701_input_fifos
	.data
	.globl	iara_runtime_data_node_4013701_input_fifos
	.p2align	3, 0x0
iara_runtime_data_node_4013701_input_fifos:
	.quad	iara_runtime_data__edge_infos+26560
	.size	iara_runtime_data_node_4013701_input_fifos, 8

	.type	iara_runtime_data_node_137_output_fifos,@object # @iara_runtime_data_node_137_output_fifos
	.globl	iara_runtime_data_node_137_output_fifos
	.p2align	3, 0x0
iara_runtime_data_node_137_output_fifos:
	.quad	iara_runtime_data__edge_infos+26560
	.quad	iara_runtime_data__edge_infos+51200
	.quad	iara_runtime_data__edge_infos+51360
	.size	iara_runtime_data_node_137_output_fifos, 24

	.type	iara_runtime_data_node_137_input_fifos,@object # @iara_runtime_data_node_137_input_fifos
	.globl	iara_runtime_data_node_137_input_fifos
	.p2align	3, 0x0
iara_runtime_data_node_137_input_fifos:
	.quad	iara_runtime_data__edge_infos+34720
	.quad	iara_runtime_data__edge_infos+26240
	.quad	iara_runtime_data__edge_infos+26400
	.size	iara_runtime_data_node_137_input_fifos, 24

	.type	iara_runtime_data_node_3013702_output_fifos,@object # @iara_runtime_data_node_3013702_output_fifos
	.globl	iara_runtime_data_node_3013702_output_fifos
	.p2align	3, 0x0
iara_runtime_data_node_3013702_output_fifos:
	.quad	iara_runtime_data__edge_infos+26400
	.size	iara_runtime_data_node_3013702_output_fifos, 8

	.type	iara_runtime_data_node_3013702_input_fifos,@object # @iara_runtime_data_node_3013702_input_fifos
	.bss
	.globl	iara_runtime_data_node_3013702_input_fifos
	.p2align	3, 0x0
iara_runtime_data_node_3013702_input_fifos:
	.size	iara_runtime_data_node_3013702_input_fifos, 0

	.type	iara_runtime_data_node_3013701_output_fifos,@object # @iara_runtime_data_node_3013701_output_fifos
	.data
	.globl	iara_runtime_data_node_3013701_output_fifos
	.p2align	3, 0x0
iara_runtime_data_node_3013701_output_fifos:
	.quad	iara_runtime_data__edge_infos+26240
	.size	iara_runtime_data_node_3013701_output_fifos, 8

	.type	iara_runtime_data_node_3013701_input_fifos,@object # @iara_runtime_data_node_3013701_input_fifos
	.bss
	.globl	iara_runtime_data_node_3013701_input_fifos
	.p2align	3, 0x0
iara_runtime_data_node_3013701_input_fifos:
	.size	iara_runtime_data_node_3013701_input_fifos, 0

	.type	iara_runtime_data_node_4013601_output_fifos,@object # @iara_runtime_data_node_4013601_output_fifos
	.globl	iara_runtime_data_node_4013601_output_fifos
	.p2align	3, 0x0
iara_runtime_data_node_4013601_output_fifos:
	.size	iara_runtime_data_node_4013601_output_fifos, 0

	.type	iara_runtime_data_node_4013601_input_fifos,@object # @iara_runtime_data_node_4013601_input_fifos
	.data
	.globl	iara_runtime_data_node_4013601_input_fifos
	.p2align	3, 0x0
iara_runtime_data_node_4013601_input_fifos:
	.quad	iara_runtime_data__edge_infos+26080
	.size	iara_runtime_data_node_4013601_input_fifos, 8

	.type	iara_runtime_data_node_136_output_fifos,@object # @iara_runtime_data_node_136_output_fifos
	.globl	iara_runtime_data_node_136_output_fifos
	.p2align	3, 0x0
iara_runtime_data_node_136_output_fifos:
	.quad	iara_runtime_data__edge_infos+26080
	.quad	iara_runtime_data__edge_infos+42240
	.quad	iara_runtime_data__edge_infos+45920
	.size	iara_runtime_data_node_136_output_fifos, 24

	.type	iara_runtime_data_node_136_input_fifos,@object # @iara_runtime_data_node_136_input_fifos
	.globl	iara_runtime_data_node_136_input_fifos
	.p2align	3, 0x0
iara_runtime_data_node_136_input_fifos:
	.quad	iara_runtime_data__edge_infos+47200
	.quad	iara_runtime_data__edge_infos+25760
	.quad	iara_runtime_data__edge_infos+25920
	.size	iara_runtime_data_node_136_input_fifos, 24

	.type	iara_runtime_data_node_3013602_output_fifos,@object # @iara_runtime_data_node_3013602_output_fifos
	.globl	iara_runtime_data_node_3013602_output_fifos
	.p2align	3, 0x0
iara_runtime_data_node_3013602_output_fifos:
	.quad	iara_runtime_data__edge_infos+25920
	.size	iara_runtime_data_node_3013602_output_fifos, 8

	.type	iara_runtime_data_node_3013602_input_fifos,@object # @iara_runtime_data_node_3013602_input_fifos
	.bss
	.globl	iara_runtime_data_node_3013602_input_fifos
	.p2align	3, 0x0
iara_runtime_data_node_3013602_input_fifos:
	.size	iara_runtime_data_node_3013602_input_fifos, 0

	.type	iara_runtime_data_node_3013601_output_fifos,@object # @iara_runtime_data_node_3013601_output_fifos
	.data
	.globl	iara_runtime_data_node_3013601_output_fifos
	.p2align	3, 0x0
iara_runtime_data_node_3013601_output_fifos:
	.quad	iara_runtime_data__edge_infos+25760
	.size	iara_runtime_data_node_3013601_output_fifos, 8

	.type	iara_runtime_data_node_3013601_input_fifos,@object # @iara_runtime_data_node_3013601_input_fifos
	.bss
	.globl	iara_runtime_data_node_3013601_input_fifos
	.p2align	3, 0x0
iara_runtime_data_node_3013601_input_fifos:
	.size	iara_runtime_data_node_3013601_input_fifos, 0

	.type	iara_runtime_data_node_4013501_output_fifos,@object # @iara_runtime_data_node_4013501_output_fifos
	.globl	iara_runtime_data_node_4013501_output_fifos
	.p2align	3, 0x0
iara_runtime_data_node_4013501_output_fifos:
	.size	iara_runtime_data_node_4013501_output_fifos, 0

	.type	iara_runtime_data_node_4013501_input_fifos,@object # @iara_runtime_data_node_4013501_input_fifos
	.data
	.globl	iara_runtime_data_node_4013501_input_fifos
	.p2align	3, 0x0
iara_runtime_data_node_4013501_input_fifos:
	.quad	iara_runtime_data__edge_infos+25600
	.size	iara_runtime_data_node_4013501_input_fifos, 8

	.type	iara_runtime_data_node_135_output_fifos,@object # @iara_runtime_data_node_135_output_fifos
	.globl	iara_runtime_data_node_135_output_fifos
	.p2align	3, 0x0
iara_runtime_data_node_135_output_fifos:
	.quad	iara_runtime_data__edge_infos+25600
	.quad	iara_runtime_data__edge_infos+45600
	.quad	iara_runtime_data__edge_infos+40800
	.size	iara_runtime_data_node_135_output_fifos, 24

	.type	iara_runtime_data_node_135_input_fifos,@object # @iara_runtime_data_node_135_input_fifos
	.globl	iara_runtime_data_node_135_input_fifos
	.p2align	3, 0x0
iara_runtime_data_node_135_input_fifos:
	.quad	iara_runtime_data__edge_infos+46080
	.quad	iara_runtime_data__edge_infos+25280
	.quad	iara_runtime_data__edge_infos+25440
	.size	iara_runtime_data_node_135_input_fifos, 24

	.type	iara_runtime_data_node_3013502_output_fifos,@object # @iara_runtime_data_node_3013502_output_fifos
	.globl	iara_runtime_data_node_3013502_output_fifos
	.p2align	3, 0x0
iara_runtime_data_node_3013502_output_fifos:
	.quad	iara_runtime_data__edge_infos+25440
	.size	iara_runtime_data_node_3013502_output_fifos, 8

	.type	iara_runtime_data_node_3013502_input_fifos,@object # @iara_runtime_data_node_3013502_input_fifos
	.bss
	.globl	iara_runtime_data_node_3013502_input_fifos
	.p2align	3, 0x0
iara_runtime_data_node_3013502_input_fifos:
	.size	iara_runtime_data_node_3013502_input_fifos, 0

	.type	iara_runtime_data_node_3013501_output_fifos,@object # @iara_runtime_data_node_3013501_output_fifos
	.data
	.globl	iara_runtime_data_node_3013501_output_fifos
	.p2align	3, 0x0
iara_runtime_data_node_3013501_output_fifos:
	.quad	iara_runtime_data__edge_infos+25280
	.size	iara_runtime_data_node_3013501_output_fifos, 8

	.type	iara_runtime_data_node_3013501_input_fifos,@object # @iara_runtime_data_node_3013501_input_fifos
	.bss
	.globl	iara_runtime_data_node_3013501_input_fifos
	.p2align	3, 0x0
iara_runtime_data_node_3013501_input_fifos:
	.size	iara_runtime_data_node_3013501_input_fifos, 0

	.type	iara_runtime_data_node_4013401_output_fifos,@object # @iara_runtime_data_node_4013401_output_fifos
	.globl	iara_runtime_data_node_4013401_output_fifos
	.p2align	3, 0x0
iara_runtime_data_node_4013401_output_fifos:
	.size	iara_runtime_data_node_4013401_output_fifos, 0

	.type	iara_runtime_data_node_4013401_input_fifos,@object # @iara_runtime_data_node_4013401_input_fifos
	.data
	.globl	iara_runtime_data_node_4013401_input_fifos
	.p2align	3, 0x0
iara_runtime_data_node_4013401_input_fifos:
	.quad	iara_runtime_data__edge_infos+25120
	.size	iara_runtime_data_node_4013401_input_fifos, 8

	.type	iara_runtime_data_node_134_output_fifos,@object # @iara_runtime_data_node_134_output_fifos
	.globl	iara_runtime_data_node_134_output_fifos
	.p2align	3, 0x0
iara_runtime_data_node_134_output_fifos:
	.quad	iara_runtime_data__edge_infos+25120
	.quad	iara_runtime_data__edge_infos+44960
	.quad	iara_runtime_data__edge_infos+40640
	.size	iara_runtime_data_node_134_output_fifos, 24

	.type	iara_runtime_data_node_134_input_fifos,@object # @iara_runtime_data_node_134_input_fifos
	.globl	iara_runtime_data_node_134_input_fifos
	.p2align	3, 0x0
iara_runtime_data_node_134_input_fifos:
	.quad	iara_runtime_data__edge_infos+45280
	.quad	iara_runtime_data__edge_infos+24800
	.quad	iara_runtime_data__edge_infos+24960
	.size	iara_runtime_data_node_134_input_fifos, 24

	.type	iara_runtime_data_node_3013402_output_fifos,@object # @iara_runtime_data_node_3013402_output_fifos
	.globl	iara_runtime_data_node_3013402_output_fifos
	.p2align	3, 0x0
iara_runtime_data_node_3013402_output_fifos:
	.quad	iara_runtime_data__edge_infos+24960
	.size	iara_runtime_data_node_3013402_output_fifos, 8

	.type	iara_runtime_data_node_3013402_input_fifos,@object # @iara_runtime_data_node_3013402_input_fifos
	.bss
	.globl	iara_runtime_data_node_3013402_input_fifos
	.p2align	3, 0x0
iara_runtime_data_node_3013402_input_fifos:
	.size	iara_runtime_data_node_3013402_input_fifos, 0

	.type	iara_runtime_data_node_3013401_output_fifos,@object # @iara_runtime_data_node_3013401_output_fifos
	.data
	.globl	iara_runtime_data_node_3013401_output_fifos
	.p2align	3, 0x0
iara_runtime_data_node_3013401_output_fifos:
	.quad	iara_runtime_data__edge_infos+24800
	.size	iara_runtime_data_node_3013401_output_fifos, 8

	.type	iara_runtime_data_node_3013401_input_fifos,@object # @iara_runtime_data_node_3013401_input_fifos
	.bss
	.globl	iara_runtime_data_node_3013401_input_fifos
	.p2align	3, 0x0
iara_runtime_data_node_3013401_input_fifos:
	.size	iara_runtime_data_node_3013401_input_fifos, 0

	.type	iara_runtime_data_node_4013301_output_fifos,@object # @iara_runtime_data_node_4013301_output_fifos
	.globl	iara_runtime_data_node_4013301_output_fifos
	.p2align	3, 0x0
iara_runtime_data_node_4013301_output_fifos:
	.size	iara_runtime_data_node_4013301_output_fifos, 0

	.type	iara_runtime_data_node_4013301_input_fifos,@object # @iara_runtime_data_node_4013301_input_fifos
	.data
	.globl	iara_runtime_data_node_4013301_input_fifos
	.p2align	3, 0x0
iara_runtime_data_node_4013301_input_fifos:
	.quad	iara_runtime_data__edge_infos+24640
	.size	iara_runtime_data_node_4013301_input_fifos, 8

	.type	iara_runtime_data_node_133_output_fifos,@object # @iara_runtime_data_node_133_output_fifos
	.globl	iara_runtime_data_node_133_output_fifos
	.p2align	3, 0x0
iara_runtime_data_node_133_output_fifos:
	.quad	iara_runtime_data__edge_infos+24640
	.quad	iara_runtime_data__edge_infos+47840
	.quad	iara_runtime_data__edge_infos+40480
	.size	iara_runtime_data_node_133_output_fifos, 24

	.type	iara_runtime_data_node_133_input_fifos,@object # @iara_runtime_data_node_133_input_fifos
	.globl	iara_runtime_data_node_133_input_fifos
	.p2align	3, 0x0
iara_runtime_data_node_133_input_fifos:
	.quad	iara_runtime_data__edge_infos+47680
	.quad	iara_runtime_data__edge_infos+24320
	.quad	iara_runtime_data__edge_infos+24480
	.size	iara_runtime_data_node_133_input_fifos, 24

	.type	iara_runtime_data_node_3013302_output_fifos,@object # @iara_runtime_data_node_3013302_output_fifos
	.globl	iara_runtime_data_node_3013302_output_fifos
	.p2align	3, 0x0
iara_runtime_data_node_3013302_output_fifos:
	.quad	iara_runtime_data__edge_infos+24480
	.size	iara_runtime_data_node_3013302_output_fifos, 8

	.type	iara_runtime_data_node_3013302_input_fifos,@object # @iara_runtime_data_node_3013302_input_fifos
	.bss
	.globl	iara_runtime_data_node_3013302_input_fifos
	.p2align	3, 0x0
iara_runtime_data_node_3013302_input_fifos:
	.size	iara_runtime_data_node_3013302_input_fifos, 0

	.type	iara_runtime_data_node_3013301_output_fifos,@object # @iara_runtime_data_node_3013301_output_fifos
	.data
	.globl	iara_runtime_data_node_3013301_output_fifos
	.p2align	3, 0x0
iara_runtime_data_node_3013301_output_fifos:
	.quad	iara_runtime_data__edge_infos+24320
	.size	iara_runtime_data_node_3013301_output_fifos, 8

	.type	iara_runtime_data_node_3013301_input_fifos,@object # @iara_runtime_data_node_3013301_input_fifos
	.bss
	.globl	iara_runtime_data_node_3013301_input_fifos
	.p2align	3, 0x0
iara_runtime_data_node_3013301_input_fifos:
	.size	iara_runtime_data_node_3013301_input_fifos, 0

	.type	iara_runtime_data_node_4013201_output_fifos,@object # @iara_runtime_data_node_4013201_output_fifos
	.globl	iara_runtime_data_node_4013201_output_fifos
	.p2align	3, 0x0
iara_runtime_data_node_4013201_output_fifos:
	.size	iara_runtime_data_node_4013201_output_fifos, 0

	.type	iara_runtime_data_node_4013201_input_fifos,@object # @iara_runtime_data_node_4013201_input_fifos
	.data
	.globl	iara_runtime_data_node_4013201_input_fifos
	.p2align	3, 0x0
iara_runtime_data_node_4013201_input_fifos:
	.quad	iara_runtime_data__edge_infos+24160
	.size	iara_runtime_data_node_4013201_input_fifos, 8

	.type	iara_runtime_data_node_132_output_fifos,@object # @iara_runtime_data_node_132_output_fifos
	.globl	iara_runtime_data_node_132_output_fifos
	.p2align	3, 0x0
iara_runtime_data_node_132_output_fifos:
	.quad	iara_runtime_data__edge_infos+24160
	.quad	iara_runtime_data__edge_infos+47520
	.quad	iara_runtime_data__edge_infos+40320
	.size	iara_runtime_data_node_132_output_fifos, 24

	.type	iara_runtime_data_node_132_input_fifos,@object # @iara_runtime_data_node_132_input_fifos
	.globl	iara_runtime_data_node_132_input_fifos
	.p2align	3, 0x0
iara_runtime_data_node_132_input_fifos:
	.quad	iara_runtime_data__edge_infos+47360
	.quad	iara_runtime_data__edge_infos+23840
	.quad	iara_runtime_data__edge_infos+24000
	.size	iara_runtime_data_node_132_input_fifos, 24

	.type	iara_runtime_data_node_3013202_output_fifos,@object # @iara_runtime_data_node_3013202_output_fifos
	.globl	iara_runtime_data_node_3013202_output_fifos
	.p2align	3, 0x0
iara_runtime_data_node_3013202_output_fifos:
	.quad	iara_runtime_data__edge_infos+24000
	.size	iara_runtime_data_node_3013202_output_fifos, 8

	.type	iara_runtime_data_node_3013202_input_fifos,@object # @iara_runtime_data_node_3013202_input_fifos
	.bss
	.globl	iara_runtime_data_node_3013202_input_fifos
	.p2align	3, 0x0
iara_runtime_data_node_3013202_input_fifos:
	.size	iara_runtime_data_node_3013202_input_fifos, 0

	.type	iara_runtime_data_node_3013201_output_fifos,@object # @iara_runtime_data_node_3013201_output_fifos
	.data
	.globl	iara_runtime_data_node_3013201_output_fifos
	.p2align	3, 0x0
iara_runtime_data_node_3013201_output_fifos:
	.quad	iara_runtime_data__edge_infos+23840
	.size	iara_runtime_data_node_3013201_output_fifos, 8

	.type	iara_runtime_data_node_3013201_input_fifos,@object # @iara_runtime_data_node_3013201_input_fifos
	.bss
	.globl	iara_runtime_data_node_3013201_input_fifos
	.p2align	3, 0x0
iara_runtime_data_node_3013201_input_fifos:
	.size	iara_runtime_data_node_3013201_input_fifos, 0

	.type	iara_runtime_data_node_131_output_fifos,@object # @iara_runtime_data_node_131_output_fifos
	.data
	.globl	iara_runtime_data_node_131_output_fifos
	.p2align	3, 0x0
iara_runtime_data_node_131_output_fifos:
	.quad	iara_runtime_data__edge_infos+47200
	.size	iara_runtime_data_node_131_output_fifos, 8

	.type	iara_runtime_data_node_131_input_fifos,@object # @iara_runtime_data_node_131_input_fifos
	.globl	iara_runtime_data_node_131_input_fifos
	.p2align	3, 0x0
iara_runtime_data_node_131_input_fifos:
	.quad	iara_runtime_data__edge_infos+23680
	.size	iara_runtime_data_node_131_input_fifos, 8

	.type	iara_runtime_data_node_3013100_output_fifos,@object # @iara_runtime_data_node_3013100_output_fifos
	.globl	iara_runtime_data_node_3013100_output_fifos
	.p2align	3, 0x0
iara_runtime_data_node_3013100_output_fifos:
	.quad	iara_runtime_data__edge_infos+23680
	.size	iara_runtime_data_node_3013100_output_fifos, 8

	.type	iara_runtime_data_node_3013100_input_fifos,@object # @iara_runtime_data_node_3013100_input_fifos
	.bss
	.globl	iara_runtime_data_node_3013100_input_fifos
	.p2align	3, 0x0
iara_runtime_data_node_3013100_input_fifos:
	.size	iara_runtime_data_node_3013100_input_fifos, 0

	.type	iara_runtime_data_node_4013001_output_fifos,@object # @iara_runtime_data_node_4013001_output_fifos
	.globl	iara_runtime_data_node_4013001_output_fifos
	.p2align	3, 0x0
iara_runtime_data_node_4013001_output_fifos:
	.size	iara_runtime_data_node_4013001_output_fifos, 0

	.type	iara_runtime_data_node_4013001_input_fifos,@object # @iara_runtime_data_node_4013001_input_fifos
	.data
	.globl	iara_runtime_data_node_4013001_input_fifos
	.p2align	3, 0x0
iara_runtime_data_node_4013001_input_fifos:
	.quad	iara_runtime_data__edge_infos+23520
	.size	iara_runtime_data_node_4013001_input_fifos, 8

	.type	iara_runtime_data_node_130_output_fifos,@object # @iara_runtime_data_node_130_output_fifos
	.globl	iara_runtime_data_node_130_output_fifos
	.p2align	3, 0x0
iara_runtime_data_node_130_output_fifos:
	.quad	iara_runtime_data__edge_infos+23520
	.quad	iara_runtime_data__edge_infos+46400
	.quad	iara_runtime_data__edge_infos+46560
	.quad	iara_runtime_data__edge_infos+45120
	.quad	iara_runtime_data__edge_infos+46720
	.quad	iara_runtime_data__edge_infos+46880
	.quad	iara_runtime_data__edge_infos+47040
	.size	iara_runtime_data_node_130_output_fifos, 56

	.type	iara_runtime_data_node_130_input_fifos,@object # @iara_runtime_data_node_130_input_fifos
	.globl	iara_runtime_data_node_130_input_fifos
	.p2align	3, 0x0
iara_runtime_data_node_130_input_fifos:
	.quad	iara_runtime_data__edge_infos+46240
	.quad	iara_runtime_data__edge_infos+22560
	.quad	iara_runtime_data__edge_infos+22720
	.quad	iara_runtime_data__edge_infos+22880
	.quad	iara_runtime_data__edge_infos+23040
	.quad	iara_runtime_data__edge_infos+23200
	.quad	iara_runtime_data__edge_infos+23360
	.size	iara_runtime_data_node_130_input_fifos, 56

	.type	iara_runtime_data_node_3013006_output_fifos,@object # @iara_runtime_data_node_3013006_output_fifos
	.globl	iara_runtime_data_node_3013006_output_fifos
	.p2align	3, 0x0
iara_runtime_data_node_3013006_output_fifos:
	.quad	iara_runtime_data__edge_infos+23360
	.size	iara_runtime_data_node_3013006_output_fifos, 8

	.type	iara_runtime_data_node_3013006_input_fifos,@object # @iara_runtime_data_node_3013006_input_fifos
	.bss
	.globl	iara_runtime_data_node_3013006_input_fifos
	.p2align	3, 0x0
iara_runtime_data_node_3013006_input_fifos:
	.size	iara_runtime_data_node_3013006_input_fifos, 0

	.type	iara_runtime_data_node_3013005_output_fifos,@object # @iara_runtime_data_node_3013005_output_fifos
	.data
	.globl	iara_runtime_data_node_3013005_output_fifos
	.p2align	3, 0x0
iara_runtime_data_node_3013005_output_fifos:
	.quad	iara_runtime_data__edge_infos+23200
	.size	iara_runtime_data_node_3013005_output_fifos, 8

	.type	iara_runtime_data_node_3013005_input_fifos,@object # @iara_runtime_data_node_3013005_input_fifos
	.bss
	.globl	iara_runtime_data_node_3013005_input_fifos
	.p2align	3, 0x0
iara_runtime_data_node_3013005_input_fifos:
	.size	iara_runtime_data_node_3013005_input_fifos, 0

	.type	iara_runtime_data_node_3013004_output_fifos,@object # @iara_runtime_data_node_3013004_output_fifos
	.data
	.globl	iara_runtime_data_node_3013004_output_fifos
	.p2align	3, 0x0
iara_runtime_data_node_3013004_output_fifos:
	.quad	iara_runtime_data__edge_infos+23040
	.size	iara_runtime_data_node_3013004_output_fifos, 8

	.type	iara_runtime_data_node_3013004_input_fifos,@object # @iara_runtime_data_node_3013004_input_fifos
	.bss
	.globl	iara_runtime_data_node_3013004_input_fifos
	.p2align	3, 0x0
iara_runtime_data_node_3013004_input_fifos:
	.size	iara_runtime_data_node_3013004_input_fifos, 0

	.type	iara_runtime_data_node_3013003_output_fifos,@object # @iara_runtime_data_node_3013003_output_fifos
	.data
	.globl	iara_runtime_data_node_3013003_output_fifos
	.p2align	3, 0x0
iara_runtime_data_node_3013003_output_fifos:
	.quad	iara_runtime_data__edge_infos+22880
	.size	iara_runtime_data_node_3013003_output_fifos, 8

	.type	iara_runtime_data_node_3013003_input_fifos,@object # @iara_runtime_data_node_3013003_input_fifos
	.bss
	.globl	iara_runtime_data_node_3013003_input_fifos
	.p2align	3, 0x0
iara_runtime_data_node_3013003_input_fifos:
	.size	iara_runtime_data_node_3013003_input_fifos, 0

	.type	iara_runtime_data_node_3013002_output_fifos,@object # @iara_runtime_data_node_3013002_output_fifos
	.data
	.globl	iara_runtime_data_node_3013002_output_fifos
	.p2align	3, 0x0
iara_runtime_data_node_3013002_output_fifos:
	.quad	iara_runtime_data__edge_infos+22720
	.size	iara_runtime_data_node_3013002_output_fifos, 8

	.type	iara_runtime_data_node_3013002_input_fifos,@object # @iara_runtime_data_node_3013002_input_fifos
	.bss
	.globl	iara_runtime_data_node_3013002_input_fifos
	.p2align	3, 0x0
iara_runtime_data_node_3013002_input_fifos:
	.size	iara_runtime_data_node_3013002_input_fifos, 0

	.type	iara_runtime_data_node_3013001_output_fifos,@object # @iara_runtime_data_node_3013001_output_fifos
	.data
	.globl	iara_runtime_data_node_3013001_output_fifos
	.p2align	3, 0x0
iara_runtime_data_node_3013001_output_fifos:
	.quad	iara_runtime_data__edge_infos+22560
	.size	iara_runtime_data_node_3013001_output_fifos, 8

	.type	iara_runtime_data_node_3013001_input_fifos,@object # @iara_runtime_data_node_3013001_input_fifos
	.bss
	.globl	iara_runtime_data_node_3013001_input_fifos
	.p2align	3, 0x0
iara_runtime_data_node_3013001_input_fifos:
	.size	iara_runtime_data_node_3013001_input_fifos, 0

	.type	iara_runtime_data_node_129_output_fifos,@object # @iara_runtime_data_node_129_output_fifos
	.data
	.globl	iara_runtime_data_node_129_output_fifos
	.p2align	3, 0x0
iara_runtime_data_node_129_output_fifos:
	.quad	iara_runtime_data__edge_infos+46240
	.size	iara_runtime_data_node_129_output_fifos, 8

	.type	iara_runtime_data_node_129_input_fifos,@object # @iara_runtime_data_node_129_input_fifos
	.globl	iara_runtime_data_node_129_input_fifos
	.p2align	3, 0x0
iara_runtime_data_node_129_input_fifos:
	.quad	iara_runtime_data__edge_infos+22400
	.size	iara_runtime_data_node_129_input_fifos, 8

	.type	iara_runtime_data_node_3012900_output_fifos,@object # @iara_runtime_data_node_3012900_output_fifos
	.globl	iara_runtime_data_node_3012900_output_fifos
	.p2align	3, 0x0
iara_runtime_data_node_3012900_output_fifos:
	.quad	iara_runtime_data__edge_infos+22400
	.size	iara_runtime_data_node_3012900_output_fifos, 8

	.type	iara_runtime_data_node_3012900_input_fifos,@object # @iara_runtime_data_node_3012900_input_fifos
	.bss
	.globl	iara_runtime_data_node_3012900_input_fifos
	.p2align	3, 0x0
iara_runtime_data_node_3012900_input_fifos:
	.size	iara_runtime_data_node_3012900_input_fifos, 0

	.type	iara_runtime_data_node_4012801_output_fifos,@object # @iara_runtime_data_node_4012801_output_fifos
	.globl	iara_runtime_data_node_4012801_output_fifos
	.p2align	3, 0x0
iara_runtime_data_node_4012801_output_fifos:
	.size	iara_runtime_data_node_4012801_output_fifos, 0

	.type	iara_runtime_data_node_4012801_input_fifos,@object # @iara_runtime_data_node_4012801_input_fifos
	.data
	.globl	iara_runtime_data_node_4012801_input_fifos
	.p2align	3, 0x0
iara_runtime_data_node_4012801_input_fifos:
	.quad	iara_runtime_data__edge_infos+22240
	.size	iara_runtime_data_node_4012801_input_fifos, 8

	.type	iara_runtime_data_node_128_output_fifos,@object # @iara_runtime_data_node_128_output_fifos
	.globl	iara_runtime_data_node_128_output_fifos
	.p2align	3, 0x0
iara_runtime_data_node_128_output_fifos:
	.quad	iara_runtime_data__edge_infos+22240
	.quad	iara_runtime_data__edge_infos+45440
	.quad	iara_runtime_data__edge_infos+42080
	.size	iara_runtime_data_node_128_output_fifos, 24

	.type	iara_runtime_data_node_128_input_fifos,@object # @iara_runtime_data_node_128_input_fifos
	.globl	iara_runtime_data_node_128_input_fifos
	.p2align	3, 0x0
iara_runtime_data_node_128_input_fifos:
	.quad	iara_runtime_data__edge_infos+42400
	.quad	iara_runtime_data__edge_infos+21920
	.quad	iara_runtime_data__edge_infos+22080
	.size	iara_runtime_data_node_128_input_fifos, 24

	.type	iara_runtime_data_node_3012802_output_fifos,@object # @iara_runtime_data_node_3012802_output_fifos
	.globl	iara_runtime_data_node_3012802_output_fifos
	.p2align	3, 0x0
iara_runtime_data_node_3012802_output_fifos:
	.quad	iara_runtime_data__edge_infos+22080
	.size	iara_runtime_data_node_3012802_output_fifos, 8

	.type	iara_runtime_data_node_3012802_input_fifos,@object # @iara_runtime_data_node_3012802_input_fifos
	.bss
	.globl	iara_runtime_data_node_3012802_input_fifos
	.p2align	3, 0x0
iara_runtime_data_node_3012802_input_fifos:
	.size	iara_runtime_data_node_3012802_input_fifos, 0

	.type	iara_runtime_data_node_3012801_output_fifos,@object # @iara_runtime_data_node_3012801_output_fifos
	.data
	.globl	iara_runtime_data_node_3012801_output_fifos
	.p2align	3, 0x0
iara_runtime_data_node_3012801_output_fifos:
	.quad	iara_runtime_data__edge_infos+21920
	.size	iara_runtime_data_node_3012801_output_fifos, 8

	.type	iara_runtime_data_node_3012801_input_fifos,@object # @iara_runtime_data_node_3012801_input_fifos
	.bss
	.globl	iara_runtime_data_node_3012801_input_fifos
	.p2align	3, 0x0
iara_runtime_data_node_3012801_input_fifos:
	.size	iara_runtime_data_node_3012801_input_fifos, 0

	.type	iara_runtime_data_node_4012701_output_fifos,@object # @iara_runtime_data_node_4012701_output_fifos
	.globl	iara_runtime_data_node_4012701_output_fifos
	.p2align	3, 0x0
iara_runtime_data_node_4012701_output_fifos:
	.size	iara_runtime_data_node_4012701_output_fifos, 0

	.type	iara_runtime_data_node_4012701_input_fifos,@object # @iara_runtime_data_node_4012701_input_fifos
	.data
	.globl	iara_runtime_data_node_4012701_input_fifos
	.p2align	3, 0x0
iara_runtime_data_node_4012701_input_fifos:
	.quad	iara_runtime_data__edge_infos+21760
	.size	iara_runtime_data_node_4012701_input_fifos, 8

	.type	iara_runtime_data_node_4012702_output_fifos,@object # @iara_runtime_data_node_4012702_output_fifos
	.bss
	.globl	iara_runtime_data_node_4012702_output_fifos
	.p2align	3, 0x0
iara_runtime_data_node_4012702_output_fifos:
	.size	iara_runtime_data_node_4012702_output_fifos, 0

	.type	iara_runtime_data_node_4012702_input_fifos,@object # @iara_runtime_data_node_4012702_input_fifos
	.data
	.globl	iara_runtime_data_node_4012702_input_fifos
	.p2align	3, 0x0
iara_runtime_data_node_4012702_input_fifos:
	.quad	iara_runtime_data__edge_infos+21600
	.size	iara_runtime_data_node_4012702_input_fifos, 8

	.type	iara_runtime_data_node_4012703_output_fifos,@object # @iara_runtime_data_node_4012703_output_fifos
	.bss
	.globl	iara_runtime_data_node_4012703_output_fifos
	.p2align	3, 0x0
iara_runtime_data_node_4012703_output_fifos:
	.size	iara_runtime_data_node_4012703_output_fifos, 0

	.type	iara_runtime_data_node_4012703_input_fifos,@object # @iara_runtime_data_node_4012703_input_fifos
	.data
	.globl	iara_runtime_data_node_4012703_input_fifos
	.p2align	3, 0x0
iara_runtime_data_node_4012703_input_fifos:
	.quad	iara_runtime_data__edge_infos+21440
	.size	iara_runtime_data_node_4012703_input_fifos, 8

	.type	iara_runtime_data_node_4012704_output_fifos,@object # @iara_runtime_data_node_4012704_output_fifos
	.bss
	.globl	iara_runtime_data_node_4012704_output_fifos
	.p2align	3, 0x0
iara_runtime_data_node_4012704_output_fifos:
	.size	iara_runtime_data_node_4012704_output_fifos, 0

	.type	iara_runtime_data_node_4012704_input_fifos,@object # @iara_runtime_data_node_4012704_input_fifos
	.data
	.globl	iara_runtime_data_node_4012704_input_fifos
	.p2align	3, 0x0
iara_runtime_data_node_4012704_input_fifos:
	.quad	iara_runtime_data__edge_infos+21280
	.size	iara_runtime_data_node_4012704_input_fifos, 8

	.type	iara_runtime_data_node_4012705_output_fifos,@object # @iara_runtime_data_node_4012705_output_fifos
	.bss
	.globl	iara_runtime_data_node_4012705_output_fifos
	.p2align	3, 0x0
iara_runtime_data_node_4012705_output_fifos:
	.size	iara_runtime_data_node_4012705_output_fifos, 0

	.type	iara_runtime_data_node_4012705_input_fifos,@object # @iara_runtime_data_node_4012705_input_fifos
	.data
	.globl	iara_runtime_data_node_4012705_input_fifos
	.p2align	3, 0x0
iara_runtime_data_node_4012705_input_fifos:
	.quad	iara_runtime_data__edge_infos+21120
	.size	iara_runtime_data_node_4012705_input_fifos, 8

	.type	iara_runtime_data_node_4012706_output_fifos,@object # @iara_runtime_data_node_4012706_output_fifos
	.bss
	.globl	iara_runtime_data_node_4012706_output_fifos
	.p2align	3, 0x0
iara_runtime_data_node_4012706_output_fifos:
	.size	iara_runtime_data_node_4012706_output_fifos, 0

	.type	iara_runtime_data_node_4012706_input_fifos,@object # @iara_runtime_data_node_4012706_input_fifos
	.data
	.globl	iara_runtime_data_node_4012706_input_fifos
	.p2align	3, 0x0
iara_runtime_data_node_4012706_input_fifos:
	.quad	iara_runtime_data__edge_infos+20960
	.size	iara_runtime_data_node_4012706_input_fifos, 8

	.type	iara_runtime_data_node_127_output_fifos,@object # @iara_runtime_data_node_127_output_fifos
	.globl	iara_runtime_data_node_127_output_fifos
	.p2align	3, 0x0
iara_runtime_data_node_127_output_fifos:
	.quad	iara_runtime_data__edge_infos+21760
	.quad	iara_runtime_data__edge_infos+21600
	.quad	iara_runtime_data__edge_infos+21440
	.quad	iara_runtime_data__edge_infos+21280
	.quad	iara_runtime_data__edge_infos+21120
	.quad	iara_runtime_data__edge_infos+20960
	.quad	iara_runtime_data__edge_infos+46080
	.size	iara_runtime_data_node_127_output_fifos, 56

	.type	iara_runtime_data_node_127_input_fifos,@object # @iara_runtime_data_node_127_input_fifos
	.globl	iara_runtime_data_node_127_input_fifos
	.p2align	3, 0x0
iara_runtime_data_node_127_input_fifos:
	.quad	iara_runtime_data__edge_infos+45440
	.quad	iara_runtime_data__edge_infos+45600
	.quad	iara_runtime_data__edge_infos+43360
	.quad	iara_runtime_data__edge_infos+44320
	.quad	iara_runtime_data__edge_infos+45760
	.quad	iara_runtime_data__edge_infos+45920
	.quad	iara_runtime_data__edge_infos+20800
	.size	iara_runtime_data_node_127_input_fifos, 56

	.type	iara_runtime_data_node_3012706_output_fifos,@object # @iara_runtime_data_node_3012706_output_fifos
	.globl	iara_runtime_data_node_3012706_output_fifos
	.p2align	3, 0x0
iara_runtime_data_node_3012706_output_fifos:
	.quad	iara_runtime_data__edge_infos+20800
	.size	iara_runtime_data_node_3012706_output_fifos, 8

	.type	iara_runtime_data_node_3012706_input_fifos,@object # @iara_runtime_data_node_3012706_input_fifos
	.bss
	.globl	iara_runtime_data_node_3012706_input_fifos
	.p2align	3, 0x0
iara_runtime_data_node_3012706_input_fifos:
	.size	iara_runtime_data_node_3012706_input_fifos, 0

	.type	iara_runtime_data_node_4012601_output_fifos,@object # @iara_runtime_data_node_4012601_output_fifos
	.globl	iara_runtime_data_node_4012601_output_fifos
	.p2align	3, 0x0
iara_runtime_data_node_4012601_output_fifos:
	.size	iara_runtime_data_node_4012601_output_fifos, 0

	.type	iara_runtime_data_node_4012601_input_fifos,@object # @iara_runtime_data_node_4012601_input_fifos
	.data
	.globl	iara_runtime_data_node_4012601_input_fifos
	.p2align	3, 0x0
iara_runtime_data_node_4012601_input_fifos:
	.quad	iara_runtime_data__edge_infos+20640
	.size	iara_runtime_data_node_4012601_input_fifos, 8

	.type	iara_runtime_data_node_126_output_fifos,@object # @iara_runtime_data_node_126_output_fifos
	.globl	iara_runtime_data_node_126_output_fifos
	.p2align	3, 0x0
iara_runtime_data_node_126_output_fifos:
	.quad	iara_runtime_data__edge_infos+20640
	.quad	iara_runtime_data__edge_infos+44640
	.size	iara_runtime_data_node_126_output_fifos, 16

	.type	iara_runtime_data_node_126_input_fifos,@object # @iara_runtime_data_node_126_input_fifos
	.globl	iara_runtime_data_node_126_input_fifos
	.p2align	3, 0x0
iara_runtime_data_node_126_input_fifos:
	.quad	iara_runtime_data__edge_infos+41280
	.quad	iara_runtime_data__edge_infos+20480
	.size	iara_runtime_data_node_126_input_fifos, 16

	.type	iara_runtime_data_node_3012601_output_fifos,@object # @iara_runtime_data_node_3012601_output_fifos
	.globl	iara_runtime_data_node_3012601_output_fifos
	.p2align	3, 0x0
iara_runtime_data_node_3012601_output_fifos:
	.quad	iara_runtime_data__edge_infos+20480
	.size	iara_runtime_data_node_3012601_output_fifos, 8

	.type	iara_runtime_data_node_3012601_input_fifos,@object # @iara_runtime_data_node_3012601_input_fifos
	.bss
	.globl	iara_runtime_data_node_3012601_input_fifos
	.p2align	3, 0x0
iara_runtime_data_node_3012601_input_fifos:
	.size	iara_runtime_data_node_3012601_input_fifos, 0

	.type	iara_runtime_data_node_4012501_output_fifos,@object # @iara_runtime_data_node_4012501_output_fifos
	.globl	iara_runtime_data_node_4012501_output_fifos
	.p2align	3, 0x0
iara_runtime_data_node_4012501_output_fifos:
	.size	iara_runtime_data_node_4012501_output_fifos, 0

	.type	iara_runtime_data_node_4012501_input_fifos,@object # @iara_runtime_data_node_4012501_input_fifos
	.data
	.globl	iara_runtime_data_node_4012501_input_fifos
	.p2align	3, 0x0
iara_runtime_data_node_4012501_input_fifos:
	.quad	iara_runtime_data__edge_infos+20320
	.size	iara_runtime_data_node_4012501_input_fifos, 8

	.type	iara_runtime_data_node_4012502_output_fifos,@object # @iara_runtime_data_node_4012502_output_fifos
	.bss
	.globl	iara_runtime_data_node_4012502_output_fifos
	.p2align	3, 0x0
iara_runtime_data_node_4012502_output_fifos:
	.size	iara_runtime_data_node_4012502_output_fifos, 0

	.type	iara_runtime_data_node_4012502_input_fifos,@object # @iara_runtime_data_node_4012502_input_fifos
	.data
	.globl	iara_runtime_data_node_4012502_input_fifos
	.p2align	3, 0x0
iara_runtime_data_node_4012502_input_fifos:
	.quad	iara_runtime_data__edge_infos+20160
	.size	iara_runtime_data_node_4012502_input_fifos, 8

	.type	iara_runtime_data_node_4012503_output_fifos,@object # @iara_runtime_data_node_4012503_output_fifos
	.bss
	.globl	iara_runtime_data_node_4012503_output_fifos
	.p2align	3, 0x0
iara_runtime_data_node_4012503_output_fifos:
	.size	iara_runtime_data_node_4012503_output_fifos, 0

	.type	iara_runtime_data_node_4012503_input_fifos,@object # @iara_runtime_data_node_4012503_input_fifos
	.data
	.globl	iara_runtime_data_node_4012503_input_fifos
	.p2align	3, 0x0
iara_runtime_data_node_4012503_input_fifos:
	.quad	iara_runtime_data__edge_infos+20000
	.size	iara_runtime_data_node_4012503_input_fifos, 8

	.type	iara_runtime_data_node_4012504_output_fifos,@object # @iara_runtime_data_node_4012504_output_fifos
	.bss
	.globl	iara_runtime_data_node_4012504_output_fifos
	.p2align	3, 0x0
iara_runtime_data_node_4012504_output_fifos:
	.size	iara_runtime_data_node_4012504_output_fifos, 0

	.type	iara_runtime_data_node_4012504_input_fifos,@object # @iara_runtime_data_node_4012504_input_fifos
	.data
	.globl	iara_runtime_data_node_4012504_input_fifos
	.p2align	3, 0x0
iara_runtime_data_node_4012504_input_fifos:
	.quad	iara_runtime_data__edge_infos+19840
	.size	iara_runtime_data_node_4012504_input_fifos, 8

	.type	iara_runtime_data_node_4012505_output_fifos,@object # @iara_runtime_data_node_4012505_output_fifos
	.bss
	.globl	iara_runtime_data_node_4012505_output_fifos
	.p2align	3, 0x0
iara_runtime_data_node_4012505_output_fifos:
	.size	iara_runtime_data_node_4012505_output_fifos, 0

	.type	iara_runtime_data_node_4012505_input_fifos,@object # @iara_runtime_data_node_4012505_input_fifos
	.data
	.globl	iara_runtime_data_node_4012505_input_fifos
	.p2align	3, 0x0
iara_runtime_data_node_4012505_input_fifos:
	.quad	iara_runtime_data__edge_infos+19680
	.size	iara_runtime_data_node_4012505_input_fifos, 8

	.type	iara_runtime_data_node_125_output_fifos,@object # @iara_runtime_data_node_125_output_fifos
	.globl	iara_runtime_data_node_125_output_fifos
	.p2align	3, 0x0
iara_runtime_data_node_125_output_fifos:
	.quad	iara_runtime_data__edge_infos+20320
	.quad	iara_runtime_data__edge_infos+20160
	.quad	iara_runtime_data__edge_infos+20000
	.quad	iara_runtime_data__edge_infos+19840
	.quad	iara_runtime_data__edge_infos+19680
	.quad	iara_runtime_data__edge_infos+45280
	.size	iara_runtime_data_node_125_output_fifos, 48

	.type	iara_runtime_data_node_125_input_fifos,@object # @iara_runtime_data_node_125_input_fifos
	.globl	iara_runtime_data_node_125_input_fifos
	.p2align	3, 0x0
iara_runtime_data_node_125_input_fifos:
	.quad	iara_runtime_data__edge_infos+44800
	.quad	iara_runtime_data__edge_infos+44960
	.quad	iara_runtime_data__edge_infos+43200
	.quad	iara_runtime_data__edge_infos+44160
	.quad	iara_runtime_data__edge_infos+45120
	.quad	iara_runtime_data__edge_infos+19520
	.size	iara_runtime_data_node_125_input_fifos, 48

	.type	iara_runtime_data_node_3012505_output_fifos,@object # @iara_runtime_data_node_3012505_output_fifos
	.globl	iara_runtime_data_node_3012505_output_fifos
	.p2align	3, 0x0
iara_runtime_data_node_3012505_output_fifos:
	.quad	iara_runtime_data__edge_infos+19520
	.size	iara_runtime_data_node_3012505_output_fifos, 8

	.type	iara_runtime_data_node_3012505_input_fifos,@object # @iara_runtime_data_node_3012505_input_fifos
	.bss
	.globl	iara_runtime_data_node_3012505_input_fifos
	.p2align	3, 0x0
iara_runtime_data_node_3012505_input_fifos:
	.size	iara_runtime_data_node_3012505_input_fifos, 0

	.type	iara_runtime_data_node_4012401_output_fifos,@object # @iara_runtime_data_node_4012401_output_fifos
	.globl	iara_runtime_data_node_4012401_output_fifos
	.p2align	3, 0x0
iara_runtime_data_node_4012401_output_fifos:
	.size	iara_runtime_data_node_4012401_output_fifos, 0

	.type	iara_runtime_data_node_4012401_input_fifos,@object # @iara_runtime_data_node_4012401_input_fifos
	.data
	.globl	iara_runtime_data_node_4012401_input_fifos
	.p2align	3, 0x0
iara_runtime_data_node_4012401_input_fifos:
	.quad	iara_runtime_data__edge_infos+19360
	.size	iara_runtime_data_node_4012401_input_fifos, 8

	.type	iara_runtime_data_node_124_output_fifos,@object # @iara_runtime_data_node_124_output_fifos
	.globl	iara_runtime_data_node_124_output_fifos
	.p2align	3, 0x0
iara_runtime_data_node_124_output_fifos:
	.quad	iara_runtime_data__edge_infos+19360
	.quad	iara_runtime_data__edge_infos+41920
	.quad	iara_runtime_data__edge_infos+44800
	.size	iara_runtime_data_node_124_output_fifos, 24

	.type	iara_runtime_data_node_124_input_fifos,@object # @iara_runtime_data_node_124_input_fifos
	.globl	iara_runtime_data_node_124_input_fifos
	.p2align	3, 0x0
iara_runtime_data_node_124_input_fifos:
	.quad	iara_runtime_data__edge_infos+44640
	.quad	iara_runtime_data__edge_infos+19040
	.quad	iara_runtime_data__edge_infos+19200
	.size	iara_runtime_data_node_124_input_fifos, 24

	.type	iara_runtime_data_node_3012402_output_fifos,@object # @iara_runtime_data_node_3012402_output_fifos
	.globl	iara_runtime_data_node_3012402_output_fifos
	.p2align	3, 0x0
iara_runtime_data_node_3012402_output_fifos:
	.quad	iara_runtime_data__edge_infos+19200
	.size	iara_runtime_data_node_3012402_output_fifos, 8

	.type	iara_runtime_data_node_3012402_input_fifos,@object # @iara_runtime_data_node_3012402_input_fifos
	.bss
	.globl	iara_runtime_data_node_3012402_input_fifos
	.p2align	3, 0x0
iara_runtime_data_node_3012402_input_fifos:
	.size	iara_runtime_data_node_3012402_input_fifos, 0

	.type	iara_runtime_data_node_3012401_output_fifos,@object # @iara_runtime_data_node_3012401_output_fifos
	.data
	.globl	iara_runtime_data_node_3012401_output_fifos
	.p2align	3, 0x0
iara_runtime_data_node_3012401_output_fifos:
	.quad	iara_runtime_data__edge_infos+19040
	.size	iara_runtime_data_node_3012401_output_fifos, 8

	.type	iara_runtime_data_node_3012401_input_fifos,@object # @iara_runtime_data_node_3012401_input_fifos
	.bss
	.globl	iara_runtime_data_node_3012401_input_fifos
	.p2align	3, 0x0
iara_runtime_data_node_3012401_input_fifos:
	.size	iara_runtime_data_node_3012401_input_fifos, 0

	.type	iara_runtime_data_node_4012301_output_fifos,@object # @iara_runtime_data_node_4012301_output_fifos
	.globl	iara_runtime_data_node_4012301_output_fifos
	.p2align	3, 0x0
iara_runtime_data_node_4012301_output_fifos:
	.size	iara_runtime_data_node_4012301_output_fifos, 0

	.type	iara_runtime_data_node_4012301_input_fifos,@object # @iara_runtime_data_node_4012301_input_fifos
	.data
	.globl	iara_runtime_data_node_4012301_input_fifos
	.p2align	3, 0x0
iara_runtime_data_node_4012301_input_fifos:
	.quad	iara_runtime_data__edge_infos+18880
	.size	iara_runtime_data_node_4012301_input_fifos, 8

	.type	iara_runtime_data_node_123_output_fifos,@object # @iara_runtime_data_node_123_output_fifos
	.globl	iara_runtime_data_node_123_output_fifos
	.p2align	3, 0x0
iara_runtime_data_node_123_output_fifos:
	.quad	iara_runtime_data__edge_infos+18880
	.quad	iara_runtime_data__edge_infos+44480
	.size	iara_runtime_data_node_123_output_fifos, 16

	.type	iara_runtime_data_node_123_input_fifos,@object # @iara_runtime_data_node_123_input_fifos
	.globl	iara_runtime_data_node_123_input_fifos
	.p2align	3, 0x0
iara_runtime_data_node_123_input_fifos:
	.quad	iara_runtime_data__edge_infos+41760
	.quad	iara_runtime_data__edge_infos+18720
	.size	iara_runtime_data_node_123_input_fifos, 16

	.type	iara_runtime_data_node_3012301_output_fifos,@object # @iara_runtime_data_node_3012301_output_fifos
	.globl	iara_runtime_data_node_3012301_output_fifos
	.p2align	3, 0x0
iara_runtime_data_node_3012301_output_fifos:
	.quad	iara_runtime_data__edge_infos+18720
	.size	iara_runtime_data_node_3012301_output_fifos, 8

	.type	iara_runtime_data_node_3012301_input_fifos,@object # @iara_runtime_data_node_3012301_input_fifos
	.bss
	.globl	iara_runtime_data_node_3012301_input_fifos
	.p2align	3, 0x0
iara_runtime_data_node_3012301_input_fifos:
	.size	iara_runtime_data_node_3012301_input_fifos, 0

	.type	iara_runtime_data_node_4012201_output_fifos,@object # @iara_runtime_data_node_4012201_output_fifos
	.globl	iara_runtime_data_node_4012201_output_fifos
	.p2align	3, 0x0
iara_runtime_data_node_4012201_output_fifos:
	.size	iara_runtime_data_node_4012201_output_fifos, 0

	.type	iara_runtime_data_node_4012201_input_fifos,@object # @iara_runtime_data_node_4012201_input_fifos
	.data
	.globl	iara_runtime_data_node_4012201_input_fifos
	.p2align	3, 0x0
iara_runtime_data_node_4012201_input_fifos:
	.quad	iara_runtime_data__edge_infos+18560
	.size	iara_runtime_data_node_4012201_input_fifos, 8

	.type	iara_runtime_data_node_122_output_fifos,@object # @iara_runtime_data_node_122_output_fifos
	.globl	iara_runtime_data_node_122_output_fifos
	.p2align	3, 0x0
iara_runtime_data_node_122_output_fifos:
	.quad	iara_runtime_data__edge_infos+18560
	.quad	iara_runtime_data__edge_infos+43520
	.quad	iara_runtime_data__edge_infos+43680
	.quad	iara_runtime_data__edge_infos+43840
	.quad	iara_runtime_data__edge_infos+44000
	.quad	iara_runtime_data__edge_infos+44160
	.quad	iara_runtime_data__edge_infos+44320
	.size	iara_runtime_data_node_122_output_fifos, 56

	.type	iara_runtime_data_node_122_input_fifos,@object # @iara_runtime_data_node_122_input_fifos
	.globl	iara_runtime_data_node_122_input_fifos
	.p2align	3, 0x0
iara_runtime_data_node_122_input_fifos:
	.quad	iara_runtime_data__edge_infos+33920
	.quad	iara_runtime_data__edge_infos+17600
	.quad	iara_runtime_data__edge_infos+17760
	.quad	iara_runtime_data__edge_infos+17920
	.quad	iara_runtime_data__edge_infos+18080
	.quad	iara_runtime_data__edge_infos+18240
	.quad	iara_runtime_data__edge_infos+18400
	.size	iara_runtime_data_node_122_input_fifos, 56

	.type	iara_runtime_data_node_3012206_output_fifos,@object # @iara_runtime_data_node_3012206_output_fifos
	.globl	iara_runtime_data_node_3012206_output_fifos
	.p2align	3, 0x0
iara_runtime_data_node_3012206_output_fifos:
	.quad	iara_runtime_data__edge_infos+18400
	.size	iara_runtime_data_node_3012206_output_fifos, 8

	.type	iara_runtime_data_node_3012206_input_fifos,@object # @iara_runtime_data_node_3012206_input_fifos
	.bss
	.globl	iara_runtime_data_node_3012206_input_fifos
	.p2align	3, 0x0
iara_runtime_data_node_3012206_input_fifos:
	.size	iara_runtime_data_node_3012206_input_fifos, 0

	.type	iara_runtime_data_node_3012205_output_fifos,@object # @iara_runtime_data_node_3012205_output_fifos
	.data
	.globl	iara_runtime_data_node_3012205_output_fifos
	.p2align	3, 0x0
iara_runtime_data_node_3012205_output_fifos:
	.quad	iara_runtime_data__edge_infos+18240
	.size	iara_runtime_data_node_3012205_output_fifos, 8

	.type	iara_runtime_data_node_3012205_input_fifos,@object # @iara_runtime_data_node_3012205_input_fifos
	.bss
	.globl	iara_runtime_data_node_3012205_input_fifos
	.p2align	3, 0x0
iara_runtime_data_node_3012205_input_fifos:
	.size	iara_runtime_data_node_3012205_input_fifos, 0

	.type	iara_runtime_data_node_3012204_output_fifos,@object # @iara_runtime_data_node_3012204_output_fifos
	.data
	.globl	iara_runtime_data_node_3012204_output_fifos
	.p2align	3, 0x0
iara_runtime_data_node_3012204_output_fifos:
	.quad	iara_runtime_data__edge_infos+18080
	.size	iara_runtime_data_node_3012204_output_fifos, 8

	.type	iara_runtime_data_node_3012204_input_fifos,@object # @iara_runtime_data_node_3012204_input_fifos
	.bss
	.globl	iara_runtime_data_node_3012204_input_fifos
	.p2align	3, 0x0
iara_runtime_data_node_3012204_input_fifos:
	.size	iara_runtime_data_node_3012204_input_fifos, 0

	.type	iara_runtime_data_node_3012203_output_fifos,@object # @iara_runtime_data_node_3012203_output_fifos
	.data
	.globl	iara_runtime_data_node_3012203_output_fifos
	.p2align	3, 0x0
iara_runtime_data_node_3012203_output_fifos:
	.quad	iara_runtime_data__edge_infos+17920
	.size	iara_runtime_data_node_3012203_output_fifos, 8

	.type	iara_runtime_data_node_3012203_input_fifos,@object # @iara_runtime_data_node_3012203_input_fifos
	.bss
	.globl	iara_runtime_data_node_3012203_input_fifos
	.p2align	3, 0x0
iara_runtime_data_node_3012203_input_fifos:
	.size	iara_runtime_data_node_3012203_input_fifos, 0

	.type	iara_runtime_data_node_3012202_output_fifos,@object # @iara_runtime_data_node_3012202_output_fifos
	.data
	.globl	iara_runtime_data_node_3012202_output_fifos
	.p2align	3, 0x0
iara_runtime_data_node_3012202_output_fifos:
	.quad	iara_runtime_data__edge_infos+17760
	.size	iara_runtime_data_node_3012202_output_fifos, 8

	.type	iara_runtime_data_node_3012202_input_fifos,@object # @iara_runtime_data_node_3012202_input_fifos
	.bss
	.globl	iara_runtime_data_node_3012202_input_fifos
	.p2align	3, 0x0
iara_runtime_data_node_3012202_input_fifos:
	.size	iara_runtime_data_node_3012202_input_fifos, 0

	.type	iara_runtime_data_node_3012201_output_fifos,@object # @iara_runtime_data_node_3012201_output_fifos
	.data
	.globl	iara_runtime_data_node_3012201_output_fifos
	.p2align	3, 0x0
iara_runtime_data_node_3012201_output_fifos:
	.quad	iara_runtime_data__edge_infos+17600
	.size	iara_runtime_data_node_3012201_output_fifos, 8

	.type	iara_runtime_data_node_3012201_input_fifos,@object # @iara_runtime_data_node_3012201_input_fifos
	.bss
	.globl	iara_runtime_data_node_3012201_input_fifos
	.p2align	3, 0x0
iara_runtime_data_node_3012201_input_fifos:
	.size	iara_runtime_data_node_3012201_input_fifos, 0

	.type	iara_runtime_data_node_4012101_output_fifos,@object # @iara_runtime_data_node_4012101_output_fifos
	.globl	iara_runtime_data_node_4012101_output_fifos
	.p2align	3, 0x0
iara_runtime_data_node_4012101_output_fifos:
	.size	iara_runtime_data_node_4012101_output_fifos, 0

	.type	iara_runtime_data_node_4012101_input_fifos,@object # @iara_runtime_data_node_4012101_input_fifos
	.data
	.globl	iara_runtime_data_node_4012101_input_fifos
	.p2align	3, 0x0
iara_runtime_data_node_4012101_input_fifos:
	.quad	iara_runtime_data__edge_infos+17440
	.size	iara_runtime_data_node_4012101_input_fifos, 8

	.type	iara_runtime_data_node_121_output_fifos,@object # @iara_runtime_data_node_121_output_fifos
	.globl	iara_runtime_data_node_121_output_fifos
	.p2align	3, 0x0
iara_runtime_data_node_121_output_fifos:
	.quad	iara_runtime_data__edge_infos+17440
	.quad	iara_runtime_data__edge_infos+42560
	.quad	iara_runtime_data__edge_infos+42720
	.quad	iara_runtime_data__edge_infos+42880
	.quad	iara_runtime_data__edge_infos+43040
	.quad	iara_runtime_data__edge_infos+43200
	.quad	iara_runtime_data__edge_infos+43360
	.size	iara_runtime_data_node_121_output_fifos, 56

	.type	iara_runtime_data_node_121_input_fifos,@object # @iara_runtime_data_node_121_input_fifos
	.globl	iara_runtime_data_node_121_input_fifos
	.p2align	3, 0x0
iara_runtime_data_node_121_input_fifos:
	.quad	iara_runtime_data__edge_infos+34080
	.quad	iara_runtime_data__edge_infos+16480
	.quad	iara_runtime_data__edge_infos+16640
	.quad	iara_runtime_data__edge_infos+16800
	.quad	iara_runtime_data__edge_infos+16960
	.quad	iara_runtime_data__edge_infos+17120
	.quad	iara_runtime_data__edge_infos+17280
	.size	iara_runtime_data_node_121_input_fifos, 56

	.type	iara_runtime_data_node_3012106_output_fifos,@object # @iara_runtime_data_node_3012106_output_fifos
	.globl	iara_runtime_data_node_3012106_output_fifos
	.p2align	3, 0x0
iara_runtime_data_node_3012106_output_fifos:
	.quad	iara_runtime_data__edge_infos+17280
	.size	iara_runtime_data_node_3012106_output_fifos, 8

	.type	iara_runtime_data_node_3012106_input_fifos,@object # @iara_runtime_data_node_3012106_input_fifos
	.bss
	.globl	iara_runtime_data_node_3012106_input_fifos
	.p2align	3, 0x0
iara_runtime_data_node_3012106_input_fifos:
	.size	iara_runtime_data_node_3012106_input_fifos, 0

	.type	iara_runtime_data_node_3012105_output_fifos,@object # @iara_runtime_data_node_3012105_output_fifos
	.data
	.globl	iara_runtime_data_node_3012105_output_fifos
	.p2align	3, 0x0
iara_runtime_data_node_3012105_output_fifos:
	.quad	iara_runtime_data__edge_infos+17120
	.size	iara_runtime_data_node_3012105_output_fifos, 8

	.type	iara_runtime_data_node_3012105_input_fifos,@object # @iara_runtime_data_node_3012105_input_fifos
	.bss
	.globl	iara_runtime_data_node_3012105_input_fifos
	.p2align	3, 0x0
iara_runtime_data_node_3012105_input_fifos:
	.size	iara_runtime_data_node_3012105_input_fifos, 0

	.type	iara_runtime_data_node_3012104_output_fifos,@object # @iara_runtime_data_node_3012104_output_fifos
	.data
	.globl	iara_runtime_data_node_3012104_output_fifos
	.p2align	3, 0x0
iara_runtime_data_node_3012104_output_fifos:
	.quad	iara_runtime_data__edge_infos+16960
	.size	iara_runtime_data_node_3012104_output_fifos, 8

	.type	iara_runtime_data_node_3012104_input_fifos,@object # @iara_runtime_data_node_3012104_input_fifos
	.bss
	.globl	iara_runtime_data_node_3012104_input_fifos
	.p2align	3, 0x0
iara_runtime_data_node_3012104_input_fifos:
	.size	iara_runtime_data_node_3012104_input_fifos, 0

	.type	iara_runtime_data_node_3012103_output_fifos,@object # @iara_runtime_data_node_3012103_output_fifos
	.data
	.globl	iara_runtime_data_node_3012103_output_fifos
	.p2align	3, 0x0
iara_runtime_data_node_3012103_output_fifos:
	.quad	iara_runtime_data__edge_infos+16800
	.size	iara_runtime_data_node_3012103_output_fifos, 8

	.type	iara_runtime_data_node_3012103_input_fifos,@object # @iara_runtime_data_node_3012103_input_fifos
	.bss
	.globl	iara_runtime_data_node_3012103_input_fifos
	.p2align	3, 0x0
iara_runtime_data_node_3012103_input_fifos:
	.size	iara_runtime_data_node_3012103_input_fifos, 0

	.type	iara_runtime_data_node_3012102_output_fifos,@object # @iara_runtime_data_node_3012102_output_fifos
	.data
	.globl	iara_runtime_data_node_3012102_output_fifos
	.p2align	3, 0x0
iara_runtime_data_node_3012102_output_fifos:
	.quad	iara_runtime_data__edge_infos+16640
	.size	iara_runtime_data_node_3012102_output_fifos, 8

	.type	iara_runtime_data_node_3012102_input_fifos,@object # @iara_runtime_data_node_3012102_input_fifos
	.bss
	.globl	iara_runtime_data_node_3012102_input_fifos
	.p2align	3, 0x0
iara_runtime_data_node_3012102_input_fifos:
	.size	iara_runtime_data_node_3012102_input_fifos, 0

	.type	iara_runtime_data_node_3012101_output_fifos,@object # @iara_runtime_data_node_3012101_output_fifos
	.data
	.globl	iara_runtime_data_node_3012101_output_fifos
	.p2align	3, 0x0
iara_runtime_data_node_3012101_output_fifos:
	.quad	iara_runtime_data__edge_infos+16480
	.size	iara_runtime_data_node_3012101_output_fifos, 8

	.type	iara_runtime_data_node_3012101_input_fifos,@object # @iara_runtime_data_node_3012101_input_fifos
	.bss
	.globl	iara_runtime_data_node_3012101_input_fifos
	.p2align	3, 0x0
iara_runtime_data_node_3012101_input_fifos:
	.size	iara_runtime_data_node_3012101_input_fifos, 0

	.type	iara_runtime_data_node_4012001_output_fifos,@object # @iara_runtime_data_node_4012001_output_fifos
	.globl	iara_runtime_data_node_4012001_output_fifos
	.p2align	3, 0x0
iara_runtime_data_node_4012001_output_fifos:
	.size	iara_runtime_data_node_4012001_output_fifos, 0

	.type	iara_runtime_data_node_4012001_input_fifos,@object # @iara_runtime_data_node_4012001_input_fifos
	.data
	.globl	iara_runtime_data_node_4012001_input_fifos
	.p2align	3, 0x0
iara_runtime_data_node_4012001_input_fifos:
	.quad	iara_runtime_data__edge_infos+16320
	.size	iara_runtime_data_node_4012001_input_fifos, 8

	.type	iara_runtime_data_node_4012002_output_fifos,@object # @iara_runtime_data_node_4012002_output_fifos
	.bss
	.globl	iara_runtime_data_node_4012002_output_fifos
	.p2align	3, 0x0
iara_runtime_data_node_4012002_output_fifos:
	.size	iara_runtime_data_node_4012002_output_fifos, 0

	.type	iara_runtime_data_node_4012002_input_fifos,@object # @iara_runtime_data_node_4012002_input_fifos
	.data
	.globl	iara_runtime_data_node_4012002_input_fifos
	.p2align	3, 0x0
iara_runtime_data_node_4012002_input_fifos:
	.quad	iara_runtime_data__edge_infos+16160
	.size	iara_runtime_data_node_4012002_input_fifos, 8

	.type	iara_runtime_data_node_4012003_output_fifos,@object # @iara_runtime_data_node_4012003_output_fifos
	.bss
	.globl	iara_runtime_data_node_4012003_output_fifos
	.p2align	3, 0x0
iara_runtime_data_node_4012003_output_fifos:
	.size	iara_runtime_data_node_4012003_output_fifos, 0

	.type	iara_runtime_data_node_4012003_input_fifos,@object # @iara_runtime_data_node_4012003_input_fifos
	.data
	.globl	iara_runtime_data_node_4012003_input_fifos
	.p2align	3, 0x0
iara_runtime_data_node_4012003_input_fifos:
	.quad	iara_runtime_data__edge_infos+16000
	.size	iara_runtime_data_node_4012003_input_fifos, 8

	.type	iara_runtime_data_node_120_output_fifos,@object # @iara_runtime_data_node_120_output_fifos
	.globl	iara_runtime_data_node_120_output_fifos
	.p2align	3, 0x0
iara_runtime_data_node_120_output_fifos:
	.quad	iara_runtime_data__edge_infos+16320
	.quad	iara_runtime_data__edge_infos+16160
	.quad	iara_runtime_data__edge_infos+16000
	.quad	iara_runtime_data__edge_infos+42400
	.size	iara_runtime_data_node_120_output_fifos, 32

	.type	iara_runtime_data_node_120_input_fifos,@object # @iara_runtime_data_node_120_input_fifos
	.globl	iara_runtime_data_node_120_input_fifos
	.p2align	3, 0x0
iara_runtime_data_node_120_input_fifos:
	.quad	iara_runtime_data__edge_infos+41920
	.quad	iara_runtime_data__edge_infos+42080
	.quad	iara_runtime_data__edge_infos+42240
	.quad	iara_runtime_data__edge_infos+15840
	.size	iara_runtime_data_node_120_input_fifos, 32

	.type	iara_runtime_data_node_3012003_output_fifos,@object # @iara_runtime_data_node_3012003_output_fifos
	.globl	iara_runtime_data_node_3012003_output_fifos
	.p2align	3, 0x0
iara_runtime_data_node_3012003_output_fifos:
	.quad	iara_runtime_data__edge_infos+15840
	.size	iara_runtime_data_node_3012003_output_fifos, 8

	.type	iara_runtime_data_node_3012003_input_fifos,@object # @iara_runtime_data_node_3012003_input_fifos
	.bss
	.globl	iara_runtime_data_node_3012003_input_fifos
	.p2align	3, 0x0
iara_runtime_data_node_3012003_input_fifos:
	.size	iara_runtime_data_node_3012003_input_fifos, 0

	.type	iara_runtime_data_node_4011901_output_fifos,@object # @iara_runtime_data_node_4011901_output_fifos
	.globl	iara_runtime_data_node_4011901_output_fifos
	.p2align	3, 0x0
iara_runtime_data_node_4011901_output_fifos:
	.size	iara_runtime_data_node_4011901_output_fifos, 0

	.type	iara_runtime_data_node_4011901_input_fifos,@object # @iara_runtime_data_node_4011901_input_fifos
	.data
	.globl	iara_runtime_data_node_4011901_input_fifos
	.p2align	3, 0x0
iara_runtime_data_node_4011901_input_fifos:
	.quad	iara_runtime_data__edge_infos+15680
	.size	iara_runtime_data_node_4011901_input_fifos, 8

	.type	iara_runtime_data_node_4011902_output_fifos,@object # @iara_runtime_data_node_4011902_output_fifos
	.bss
	.globl	iara_runtime_data_node_4011902_output_fifos
	.p2align	3, 0x0
iara_runtime_data_node_4011902_output_fifos:
	.size	iara_runtime_data_node_4011902_output_fifos, 0

	.type	iara_runtime_data_node_4011902_input_fifos,@object # @iara_runtime_data_node_4011902_input_fifos
	.data
	.globl	iara_runtime_data_node_4011902_input_fifos
	.p2align	3, 0x0
iara_runtime_data_node_4011902_input_fifos:
	.quad	iara_runtime_data__edge_infos+15520
	.size	iara_runtime_data_node_4011902_input_fifos, 8

	.type	iara_runtime_data_node_119_output_fifos,@object # @iara_runtime_data_node_119_output_fifos
	.globl	iara_runtime_data_node_119_output_fifos
	.p2align	3, 0x0
iara_runtime_data_node_119_output_fifos:
	.quad	iara_runtime_data__edge_infos+15680
	.quad	iara_runtime_data__edge_infos+15520
	.quad	iara_runtime_data__edge_infos+41760
	.size	iara_runtime_data_node_119_output_fifos, 24

	.type	iara_runtime_data_node_119_input_fifos,@object # @iara_runtime_data_node_119_input_fifos
	.globl	iara_runtime_data_node_119_input_fifos
	.p2align	3, 0x0
iara_runtime_data_node_119_input_fifos:
	.quad	iara_runtime_data__edge_infos+41440
	.quad	iara_runtime_data__edge_infos+41600
	.quad	iara_runtime_data__edge_infos+15360
	.size	iara_runtime_data_node_119_input_fifos, 24

	.type	iara_runtime_data_node_3011902_output_fifos,@object # @iara_runtime_data_node_3011902_output_fifos
	.globl	iara_runtime_data_node_3011902_output_fifos
	.p2align	3, 0x0
iara_runtime_data_node_3011902_output_fifos:
	.quad	iara_runtime_data__edge_infos+15360
	.size	iara_runtime_data_node_3011902_output_fifos, 8

	.type	iara_runtime_data_node_3011902_input_fifos,@object # @iara_runtime_data_node_3011902_input_fifos
	.bss
	.globl	iara_runtime_data_node_3011902_input_fifos
	.p2align	3, 0x0
iara_runtime_data_node_3011902_input_fifos:
	.size	iara_runtime_data_node_3011902_input_fifos, 0

	.type	iara_runtime_data_node_4011801_output_fifos,@object # @iara_runtime_data_node_4011801_output_fifos
	.globl	iara_runtime_data_node_4011801_output_fifos
	.p2align	3, 0x0
iara_runtime_data_node_4011801_output_fifos:
	.size	iara_runtime_data_node_4011801_output_fifos, 0

	.type	iara_runtime_data_node_4011801_input_fifos,@object # @iara_runtime_data_node_4011801_input_fifos
	.data
	.globl	iara_runtime_data_node_4011801_input_fifos
	.p2align	3, 0x0
iara_runtime_data_node_4011801_input_fifos:
	.quad	iara_runtime_data__edge_infos+15200
	.size	iara_runtime_data_node_4011801_input_fifos, 8

	.type	iara_runtime_data_node_118_output_fifos,@object # @iara_runtime_data_node_118_output_fifos
	.globl	iara_runtime_data_node_118_output_fifos
	.p2align	3, 0x0
iara_runtime_data_node_118_output_fifos:
	.quad	iara_runtime_data__edge_infos+15200
	.quad	iara_runtime_data__edge_infos+40960
	.quad	iara_runtime_data__edge_infos+41120
	.quad	iara_runtime_data__edge_infos+41280
	.size	iara_runtime_data_node_118_output_fifos, 32

	.type	iara_runtime_data_node_118_input_fifos,@object # @iara_runtime_data_node_118_input_fifos
	.globl	iara_runtime_data_node_118_input_fifos
	.p2align	3, 0x0
iara_runtime_data_node_118_input_fifos:
	.quad	iara_runtime_data__edge_infos+40000
	.quad	iara_runtime_data__edge_infos+14720
	.quad	iara_runtime_data__edge_infos+14880
	.quad	iara_runtime_data__edge_infos+15040
	.size	iara_runtime_data_node_118_input_fifos, 32

	.type	iara_runtime_data_node_3011803_output_fifos,@object # @iara_runtime_data_node_3011803_output_fifos
	.globl	iara_runtime_data_node_3011803_output_fifos
	.p2align	3, 0x0
iara_runtime_data_node_3011803_output_fifos:
	.quad	iara_runtime_data__edge_infos+15040
	.size	iara_runtime_data_node_3011803_output_fifos, 8

	.type	iara_runtime_data_node_3011803_input_fifos,@object # @iara_runtime_data_node_3011803_input_fifos
	.bss
	.globl	iara_runtime_data_node_3011803_input_fifos
	.p2align	3, 0x0
iara_runtime_data_node_3011803_input_fifos:
	.size	iara_runtime_data_node_3011803_input_fifos, 0

	.type	iara_runtime_data_node_3011802_output_fifos,@object # @iara_runtime_data_node_3011802_output_fifos
	.data
	.globl	iara_runtime_data_node_3011802_output_fifos
	.p2align	3, 0x0
iara_runtime_data_node_3011802_output_fifos:
	.quad	iara_runtime_data__edge_infos+14880
	.size	iara_runtime_data_node_3011802_output_fifos, 8

	.type	iara_runtime_data_node_3011802_input_fifos,@object # @iara_runtime_data_node_3011802_input_fifos
	.bss
	.globl	iara_runtime_data_node_3011802_input_fifos
	.p2align	3, 0x0
iara_runtime_data_node_3011802_input_fifos:
	.size	iara_runtime_data_node_3011802_input_fifos, 0

	.type	iara_runtime_data_node_3011801_output_fifos,@object # @iara_runtime_data_node_3011801_output_fifos
	.data
	.globl	iara_runtime_data_node_3011801_output_fifos
	.p2align	3, 0x0
iara_runtime_data_node_3011801_output_fifos:
	.quad	iara_runtime_data__edge_infos+14720
	.size	iara_runtime_data_node_3011801_output_fifos, 8

	.type	iara_runtime_data_node_3011801_input_fifos,@object # @iara_runtime_data_node_3011801_input_fifos
	.bss
	.globl	iara_runtime_data_node_3011801_input_fifos
	.p2align	3, 0x0
iara_runtime_data_node_3011801_input_fifos:
	.size	iara_runtime_data_node_3011801_input_fifos, 0

	.type	iara_runtime_data_node_4011701_output_fifos,@object # @iara_runtime_data_node_4011701_output_fifos
	.globl	iara_runtime_data_node_4011701_output_fifos
	.p2align	3, 0x0
iara_runtime_data_node_4011701_output_fifos:
	.size	iara_runtime_data_node_4011701_output_fifos, 0

	.type	iara_runtime_data_node_4011701_input_fifos,@object # @iara_runtime_data_node_4011701_input_fifos
	.data
	.globl	iara_runtime_data_node_4011701_input_fifos
	.p2align	3, 0x0
iara_runtime_data_node_4011701_input_fifos:
	.quad	iara_runtime_data__edge_infos+14560
	.size	iara_runtime_data_node_4011701_input_fifos, 8

	.type	iara_runtime_data_node_4011702_output_fifos,@object # @iara_runtime_data_node_4011702_output_fifos
	.bss
	.globl	iara_runtime_data_node_4011702_output_fifos
	.p2align	3, 0x0
iara_runtime_data_node_4011702_output_fifos:
	.size	iara_runtime_data_node_4011702_output_fifos, 0

	.type	iara_runtime_data_node_4011702_input_fifos,@object # @iara_runtime_data_node_4011702_input_fifos
	.data
	.globl	iara_runtime_data_node_4011702_input_fifos
	.p2align	3, 0x0
iara_runtime_data_node_4011702_input_fifos:
	.quad	iara_runtime_data__edge_infos+14400
	.size	iara_runtime_data_node_4011702_input_fifos, 8

	.type	iara_runtime_data_node_4011703_output_fifos,@object # @iara_runtime_data_node_4011703_output_fifos
	.bss
	.globl	iara_runtime_data_node_4011703_output_fifos
	.p2align	3, 0x0
iara_runtime_data_node_4011703_output_fifos:
	.size	iara_runtime_data_node_4011703_output_fifos, 0

	.type	iara_runtime_data_node_4011703_input_fifos,@object # @iara_runtime_data_node_4011703_input_fifos
	.data
	.globl	iara_runtime_data_node_4011703_input_fifos
	.p2align	3, 0x0
iara_runtime_data_node_4011703_input_fifos:
	.quad	iara_runtime_data__edge_infos+14240
	.size	iara_runtime_data_node_4011703_input_fifos, 8

	.type	iara_runtime_data_node_4011704_output_fifos,@object # @iara_runtime_data_node_4011704_output_fifos
	.bss
	.globl	iara_runtime_data_node_4011704_output_fifos
	.p2align	3, 0x0
iara_runtime_data_node_4011704_output_fifos:
	.size	iara_runtime_data_node_4011704_output_fifos, 0

	.type	iara_runtime_data_node_4011704_input_fifos,@object # @iara_runtime_data_node_4011704_input_fifos
	.data
	.globl	iara_runtime_data_node_4011704_input_fifos
	.p2align	3, 0x0
iara_runtime_data_node_4011704_input_fifos:
	.quad	iara_runtime_data__edge_infos+14080
	.size	iara_runtime_data_node_4011704_input_fifos, 8

	.type	iara_runtime_data_node_117_output_fifos,@object # @iara_runtime_data_node_117_output_fifos
	.globl	iara_runtime_data_node_117_output_fifos
	.p2align	3, 0x0
iara_runtime_data_node_117_output_fifos:
	.quad	iara_runtime_data__edge_infos+14560
	.quad	iara_runtime_data__edge_infos+14400
	.quad	iara_runtime_data__edge_infos+14240
	.quad	iara_runtime_data__edge_infos+14080
	.quad	iara_runtime_data__edge_infos+40160
	.size	iara_runtime_data_node_117_output_fifos, 40

	.type	iara_runtime_data_node_117_input_fifos,@object # @iara_runtime_data_node_117_input_fifos
	.globl	iara_runtime_data_node_117_input_fifos
	.p2align	3, 0x0
iara_runtime_data_node_117_input_fifos:
	.quad	iara_runtime_data__edge_infos+40320
	.quad	iara_runtime_data__edge_infos+40480
	.quad	iara_runtime_data__edge_infos+40640
	.quad	iara_runtime_data__edge_infos+40800
	.quad	iara_runtime_data__edge_infos+13920
	.size	iara_runtime_data_node_117_input_fifos, 40

	.type	iara_runtime_data_node_3011704_output_fifos,@object # @iara_runtime_data_node_3011704_output_fifos
	.globl	iara_runtime_data_node_3011704_output_fifos
	.p2align	3, 0x0
iara_runtime_data_node_3011704_output_fifos:
	.quad	iara_runtime_data__edge_infos+13920
	.size	iara_runtime_data_node_3011704_output_fifos, 8

	.type	iara_runtime_data_node_3011704_input_fifos,@object # @iara_runtime_data_node_3011704_input_fifos
	.bss
	.globl	iara_runtime_data_node_3011704_input_fifos
	.p2align	3, 0x0
iara_runtime_data_node_3011704_input_fifos:
	.size	iara_runtime_data_node_3011704_input_fifos, 0

	.type	iara_runtime_data_node_4011601_output_fifos,@object # @iara_runtime_data_node_4011601_output_fifos
	.globl	iara_runtime_data_node_4011601_output_fifos
	.p2align	3, 0x0
iara_runtime_data_node_4011601_output_fifos:
	.size	iara_runtime_data_node_4011601_output_fifos, 0

	.type	iara_runtime_data_node_4011601_input_fifos,@object # @iara_runtime_data_node_4011601_input_fifos
	.data
	.globl	iara_runtime_data_node_4011601_input_fifos
	.p2align	3, 0x0
iara_runtime_data_node_4011601_input_fifos:
	.quad	iara_runtime_data__edge_infos+13760
	.size	iara_runtime_data_node_4011601_input_fifos, 8

	.type	iara_runtime_data_node_116_output_fifos,@object # @iara_runtime_data_node_116_output_fifos
	.globl	iara_runtime_data_node_116_output_fifos
	.p2align	3, 0x0
iara_runtime_data_node_116_output_fifos:
	.quad	iara_runtime_data__edge_infos+13760
	.quad	iara_runtime_data__edge_infos+36960
	.quad	iara_runtime_data__edge_infos+38560
	.size	iara_runtime_data_node_116_output_fifos, 24

	.type	iara_runtime_data_node_116_input_fifos,@object # @iara_runtime_data_node_116_input_fifos
	.globl	iara_runtime_data_node_116_input_fifos
	.p2align	3, 0x0
iara_runtime_data_node_116_input_fifos:
	.quad	iara_runtime_data__edge_infos+40160
	.quad	iara_runtime_data__edge_infos+13440
	.quad	iara_runtime_data__edge_infos+13600
	.size	iara_runtime_data_node_116_input_fifos, 24

	.type	iara_runtime_data_node_3011602_output_fifos,@object # @iara_runtime_data_node_3011602_output_fifos
	.globl	iara_runtime_data_node_3011602_output_fifos
	.p2align	3, 0x0
iara_runtime_data_node_3011602_output_fifos:
	.quad	iara_runtime_data__edge_infos+13600
	.size	iara_runtime_data_node_3011602_output_fifos, 8

	.type	iara_runtime_data_node_3011602_input_fifos,@object # @iara_runtime_data_node_3011602_input_fifos
	.bss
	.globl	iara_runtime_data_node_3011602_input_fifos
	.p2align	3, 0x0
iara_runtime_data_node_3011602_input_fifos:
	.size	iara_runtime_data_node_3011602_input_fifos, 0

	.type	iara_runtime_data_node_3011601_output_fifos,@object # @iara_runtime_data_node_3011601_output_fifos
	.data
	.globl	iara_runtime_data_node_3011601_output_fifos
	.p2align	3, 0x0
iara_runtime_data_node_3011601_output_fifos:
	.quad	iara_runtime_data__edge_infos+13440
	.size	iara_runtime_data_node_3011601_output_fifos, 8

	.type	iara_runtime_data_node_3011601_input_fifos,@object # @iara_runtime_data_node_3011601_input_fifos
	.bss
	.globl	iara_runtime_data_node_3011601_input_fifos
	.p2align	3, 0x0
iara_runtime_data_node_3011601_input_fifos:
	.size	iara_runtime_data_node_3011601_input_fifos, 0

	.type	iara_runtime_data_node_4011501_output_fifos,@object # @iara_runtime_data_node_4011501_output_fifos
	.globl	iara_runtime_data_node_4011501_output_fifos
	.p2align	3, 0x0
iara_runtime_data_node_4011501_output_fifos:
	.size	iara_runtime_data_node_4011501_output_fifos, 0

	.type	iara_runtime_data_node_4011501_input_fifos,@object # @iara_runtime_data_node_4011501_input_fifos
	.data
	.globl	iara_runtime_data_node_4011501_input_fifos
	.p2align	3, 0x0
iara_runtime_data_node_4011501_input_fifos:
	.quad	iara_runtime_data__edge_infos+13280
	.size	iara_runtime_data_node_4011501_input_fifos, 8

	.type	iara_runtime_data_node_115_output_fifos,@object # @iara_runtime_data_node_115_output_fifos
	.globl	iara_runtime_data_node_115_output_fifos
	.p2align	3, 0x0
iara_runtime_data_node_115_output_fifos:
	.quad	iara_runtime_data__edge_infos+13280
	.quad	iara_runtime_data__edge_infos+40000
	.size	iara_runtime_data_node_115_output_fifos, 16

	.type	iara_runtime_data_node_115_input_fifos,@object # @iara_runtime_data_node_115_input_fifos
	.globl	iara_runtime_data_node_115_input_fifos
	.p2align	3, 0x0
iara_runtime_data_node_115_input_fifos:
	.quad	iara_runtime_data__edge_infos+50560
	.quad	iara_runtime_data__edge_infos+13120
	.size	iara_runtime_data_node_115_input_fifos, 16

	.type	iara_runtime_data_node_3011501_output_fifos,@object # @iara_runtime_data_node_3011501_output_fifos
	.globl	iara_runtime_data_node_3011501_output_fifos
	.p2align	3, 0x0
iara_runtime_data_node_3011501_output_fifos:
	.quad	iara_runtime_data__edge_infos+13120
	.size	iara_runtime_data_node_3011501_output_fifos, 8

	.type	iara_runtime_data_node_3011501_input_fifos,@object # @iara_runtime_data_node_3011501_input_fifos
	.bss
	.globl	iara_runtime_data_node_3011501_input_fifos
	.p2align	3, 0x0
iara_runtime_data_node_3011501_input_fifos:
	.size	iara_runtime_data_node_3011501_input_fifos, 0

	.type	iara_runtime_data_node_114_output_fifos,@object # @iara_runtime_data_node_114_output_fifos
	.data
	.globl	iara_runtime_data_node_114_output_fifos
	.p2align	3, 0x0
iara_runtime_data_node_114_output_fifos:
	.quad	iara_runtime_data__edge_infos+38720
	.quad	iara_runtime_data__edge_infos+38880
	.quad	iara_runtime_data__edge_infos+39040
	.quad	iara_runtime_data__edge_infos+39200
	.quad	iara_runtime_data__edge_infos+39360
	.quad	iara_runtime_data__edge_infos+39520
	.quad	iara_runtime_data__edge_infos+39680
	.quad	iara_runtime_data__edge_infos+39840
	.size	iara_runtime_data_node_114_output_fifos, 64

	.type	iara_runtime_data_node_114_input_fifos,@object # @iara_runtime_data_node_114_input_fifos
	.globl	iara_runtime_data_node_114_input_fifos
	.p2align	3, 0x0
iara_runtime_data_node_114_input_fifos:
	.quad	iara_runtime_data__edge_infos+11840
	.quad	iara_runtime_data__edge_infos+12000
	.quad	iara_runtime_data__edge_infos+12160
	.quad	iara_runtime_data__edge_infos+12320
	.quad	iara_runtime_data__edge_infos+12480
	.quad	iara_runtime_data__edge_infos+12640
	.quad	iara_runtime_data__edge_infos+12800
	.quad	iara_runtime_data__edge_infos+12960
	.size	iara_runtime_data_node_114_input_fifos, 64

	.type	iara_runtime_data_node_3011407_output_fifos,@object # @iara_runtime_data_node_3011407_output_fifos
	.globl	iara_runtime_data_node_3011407_output_fifos
	.p2align	3, 0x0
iara_runtime_data_node_3011407_output_fifos:
	.quad	iara_runtime_data__edge_infos+12960
	.size	iara_runtime_data_node_3011407_output_fifos, 8

	.type	iara_runtime_data_node_3011407_input_fifos,@object # @iara_runtime_data_node_3011407_input_fifos
	.bss
	.globl	iara_runtime_data_node_3011407_input_fifos
	.p2align	3, 0x0
iara_runtime_data_node_3011407_input_fifos:
	.size	iara_runtime_data_node_3011407_input_fifos, 0

	.type	iara_runtime_data_node_3011406_output_fifos,@object # @iara_runtime_data_node_3011406_output_fifos
	.data
	.globl	iara_runtime_data_node_3011406_output_fifos
	.p2align	3, 0x0
iara_runtime_data_node_3011406_output_fifos:
	.quad	iara_runtime_data__edge_infos+12800
	.size	iara_runtime_data_node_3011406_output_fifos, 8

	.type	iara_runtime_data_node_3011406_input_fifos,@object # @iara_runtime_data_node_3011406_input_fifos
	.bss
	.globl	iara_runtime_data_node_3011406_input_fifos
	.p2align	3, 0x0
iara_runtime_data_node_3011406_input_fifos:
	.size	iara_runtime_data_node_3011406_input_fifos, 0

	.type	iara_runtime_data_node_3011405_output_fifos,@object # @iara_runtime_data_node_3011405_output_fifos
	.data
	.globl	iara_runtime_data_node_3011405_output_fifos
	.p2align	3, 0x0
iara_runtime_data_node_3011405_output_fifos:
	.quad	iara_runtime_data__edge_infos+12640
	.size	iara_runtime_data_node_3011405_output_fifos, 8

	.type	iara_runtime_data_node_3011405_input_fifos,@object # @iara_runtime_data_node_3011405_input_fifos
	.bss
	.globl	iara_runtime_data_node_3011405_input_fifos
	.p2align	3, 0x0
iara_runtime_data_node_3011405_input_fifos:
	.size	iara_runtime_data_node_3011405_input_fifos, 0

	.type	iara_runtime_data_node_3011404_output_fifos,@object # @iara_runtime_data_node_3011404_output_fifos
	.data
	.globl	iara_runtime_data_node_3011404_output_fifos
	.p2align	3, 0x0
iara_runtime_data_node_3011404_output_fifos:
	.quad	iara_runtime_data__edge_infos+12480
	.size	iara_runtime_data_node_3011404_output_fifos, 8

	.type	iara_runtime_data_node_3011404_input_fifos,@object # @iara_runtime_data_node_3011404_input_fifos
	.bss
	.globl	iara_runtime_data_node_3011404_input_fifos
	.p2align	3, 0x0
iara_runtime_data_node_3011404_input_fifos:
	.size	iara_runtime_data_node_3011404_input_fifos, 0

	.type	iara_runtime_data_node_3011403_output_fifos,@object # @iara_runtime_data_node_3011403_output_fifos
	.data
	.globl	iara_runtime_data_node_3011403_output_fifos
	.p2align	3, 0x0
iara_runtime_data_node_3011403_output_fifos:
	.quad	iara_runtime_data__edge_infos+12320
	.size	iara_runtime_data_node_3011403_output_fifos, 8

	.type	iara_runtime_data_node_3011403_input_fifos,@object # @iara_runtime_data_node_3011403_input_fifos
	.bss
	.globl	iara_runtime_data_node_3011403_input_fifos
	.p2align	3, 0x0
iara_runtime_data_node_3011403_input_fifos:
	.size	iara_runtime_data_node_3011403_input_fifos, 0

	.type	iara_runtime_data_node_3011402_output_fifos,@object # @iara_runtime_data_node_3011402_output_fifos
	.data
	.globl	iara_runtime_data_node_3011402_output_fifos
	.p2align	3, 0x0
iara_runtime_data_node_3011402_output_fifos:
	.quad	iara_runtime_data__edge_infos+12160
	.size	iara_runtime_data_node_3011402_output_fifos, 8

	.type	iara_runtime_data_node_3011402_input_fifos,@object # @iara_runtime_data_node_3011402_input_fifos
	.bss
	.globl	iara_runtime_data_node_3011402_input_fifos
	.p2align	3, 0x0
iara_runtime_data_node_3011402_input_fifos:
	.size	iara_runtime_data_node_3011402_input_fifos, 0

	.type	iara_runtime_data_node_3011401_output_fifos,@object # @iara_runtime_data_node_3011401_output_fifos
	.data
	.globl	iara_runtime_data_node_3011401_output_fifos
	.p2align	3, 0x0
iara_runtime_data_node_3011401_output_fifos:
	.quad	iara_runtime_data__edge_infos+12000
	.size	iara_runtime_data_node_3011401_output_fifos, 8

	.type	iara_runtime_data_node_3011401_input_fifos,@object # @iara_runtime_data_node_3011401_input_fifos
	.bss
	.globl	iara_runtime_data_node_3011401_input_fifos
	.p2align	3, 0x0
iara_runtime_data_node_3011401_input_fifos:
	.size	iara_runtime_data_node_3011401_input_fifos, 0

	.type	iara_runtime_data_node_3011400_output_fifos,@object # @iara_runtime_data_node_3011400_output_fifos
	.data
	.globl	iara_runtime_data_node_3011400_output_fifos
	.p2align	3, 0x0
iara_runtime_data_node_3011400_output_fifos:
	.quad	iara_runtime_data__edge_infos+11840
	.size	iara_runtime_data_node_3011400_output_fifos, 8

	.type	iara_runtime_data_node_3011400_input_fifos,@object # @iara_runtime_data_node_3011400_input_fifos
	.bss
	.globl	iara_runtime_data_node_3011400_input_fifos
	.p2align	3, 0x0
iara_runtime_data_node_3011400_input_fifos:
	.size	iara_runtime_data_node_3011400_input_fifos, 0

	.type	iara_runtime_data_node_4011301_output_fifos,@object # @iara_runtime_data_node_4011301_output_fifos
	.globl	iara_runtime_data_node_4011301_output_fifos
	.p2align	3, 0x0
iara_runtime_data_node_4011301_output_fifos:
	.size	iara_runtime_data_node_4011301_output_fifos, 0

	.type	iara_runtime_data_node_4011301_input_fifos,@object # @iara_runtime_data_node_4011301_input_fifos
	.data
	.globl	iara_runtime_data_node_4011301_input_fifos
	.p2align	3, 0x0
iara_runtime_data_node_4011301_input_fifos:
	.quad	iara_runtime_data__edge_infos+11680
	.size	iara_runtime_data_node_4011301_input_fifos, 8

	.type	iara_runtime_data_node_4011302_output_fifos,@object # @iara_runtime_data_node_4011302_output_fifos
	.bss
	.globl	iara_runtime_data_node_4011302_output_fifos
	.p2align	3, 0x0
iara_runtime_data_node_4011302_output_fifos:
	.size	iara_runtime_data_node_4011302_output_fifos, 0

	.type	iara_runtime_data_node_4011302_input_fifos,@object # @iara_runtime_data_node_4011302_input_fifos
	.data
	.globl	iara_runtime_data_node_4011302_input_fifos
	.p2align	3, 0x0
iara_runtime_data_node_4011302_input_fifos:
	.quad	iara_runtime_data__edge_infos+11520
	.size	iara_runtime_data_node_4011302_input_fifos, 8

	.type	iara_runtime_data_node_4011303_output_fifos,@object # @iara_runtime_data_node_4011303_output_fifos
	.bss
	.globl	iara_runtime_data_node_4011303_output_fifos
	.p2align	3, 0x0
iara_runtime_data_node_4011303_output_fifos:
	.size	iara_runtime_data_node_4011303_output_fifos, 0

	.type	iara_runtime_data_node_4011303_input_fifos,@object # @iara_runtime_data_node_4011303_input_fifos
	.data
	.globl	iara_runtime_data_node_4011303_input_fifos
	.p2align	3, 0x0
iara_runtime_data_node_4011303_input_fifos:
	.quad	iara_runtime_data__edge_infos+11360
	.size	iara_runtime_data_node_4011303_input_fifos, 8

	.type	iara_runtime_data_node_4011304_output_fifos,@object # @iara_runtime_data_node_4011304_output_fifos
	.bss
	.globl	iara_runtime_data_node_4011304_output_fifos
	.p2align	3, 0x0
iara_runtime_data_node_4011304_output_fifos:
	.size	iara_runtime_data_node_4011304_output_fifos, 0

	.type	iara_runtime_data_node_4011304_input_fifos,@object # @iara_runtime_data_node_4011304_input_fifos
	.data
	.globl	iara_runtime_data_node_4011304_input_fifos
	.p2align	3, 0x0
iara_runtime_data_node_4011304_input_fifos:
	.quad	iara_runtime_data__edge_infos+11200
	.size	iara_runtime_data_node_4011304_input_fifos, 8

	.type	iara_runtime_data_node_4011305_output_fifos,@object # @iara_runtime_data_node_4011305_output_fifos
	.bss
	.globl	iara_runtime_data_node_4011305_output_fifos
	.p2align	3, 0x0
iara_runtime_data_node_4011305_output_fifos:
	.size	iara_runtime_data_node_4011305_output_fifos, 0

	.type	iara_runtime_data_node_4011305_input_fifos,@object # @iara_runtime_data_node_4011305_input_fifos
	.data
	.globl	iara_runtime_data_node_4011305_input_fifos
	.p2align	3, 0x0
iara_runtime_data_node_4011305_input_fifos:
	.quad	iara_runtime_data__edge_infos+11040
	.size	iara_runtime_data_node_4011305_input_fifos, 8

	.type	iara_runtime_data_node_4011306_output_fifos,@object # @iara_runtime_data_node_4011306_output_fifos
	.bss
	.globl	iara_runtime_data_node_4011306_output_fifos
	.p2align	3, 0x0
iara_runtime_data_node_4011306_output_fifos:
	.size	iara_runtime_data_node_4011306_output_fifos, 0

	.type	iara_runtime_data_node_4011306_input_fifos,@object # @iara_runtime_data_node_4011306_input_fifos
	.data
	.globl	iara_runtime_data_node_4011306_input_fifos
	.p2align	3, 0x0
iara_runtime_data_node_4011306_input_fifos:
	.quad	iara_runtime_data__edge_infos+10880
	.size	iara_runtime_data_node_4011306_input_fifos, 8

	.type	iara_runtime_data_node_4011307_output_fifos,@object # @iara_runtime_data_node_4011307_output_fifos
	.bss
	.globl	iara_runtime_data_node_4011307_output_fifos
	.p2align	3, 0x0
iara_runtime_data_node_4011307_output_fifos:
	.size	iara_runtime_data_node_4011307_output_fifos, 0

	.type	iara_runtime_data_node_4011307_input_fifos,@object # @iara_runtime_data_node_4011307_input_fifos
	.data
	.globl	iara_runtime_data_node_4011307_input_fifos
	.p2align	3, 0x0
iara_runtime_data_node_4011307_input_fifos:
	.quad	iara_runtime_data__edge_infos+10720
	.size	iara_runtime_data_node_4011307_input_fifos, 8

	.type	iara_runtime_data_node_4011308_output_fifos,@object # @iara_runtime_data_node_4011308_output_fifos
	.bss
	.globl	iara_runtime_data_node_4011308_output_fifos
	.p2align	3, 0x0
iara_runtime_data_node_4011308_output_fifos:
	.size	iara_runtime_data_node_4011308_output_fifos, 0

	.type	iara_runtime_data_node_4011308_input_fifos,@object # @iara_runtime_data_node_4011308_input_fifos
	.data
	.globl	iara_runtime_data_node_4011308_input_fifos
	.p2align	3, 0x0
iara_runtime_data_node_4011308_input_fifos:
	.quad	iara_runtime_data__edge_infos+10560
	.size	iara_runtime_data_node_4011308_input_fifos, 8

	.type	iara_runtime_data_node_4011309_output_fifos,@object # @iara_runtime_data_node_4011309_output_fifos
	.bss
	.globl	iara_runtime_data_node_4011309_output_fifos
	.p2align	3, 0x0
iara_runtime_data_node_4011309_output_fifos:
	.size	iara_runtime_data_node_4011309_output_fifos, 0

	.type	iara_runtime_data_node_4011309_input_fifos,@object # @iara_runtime_data_node_4011309_input_fifos
	.data
	.globl	iara_runtime_data_node_4011309_input_fifos
	.p2align	3, 0x0
iara_runtime_data_node_4011309_input_fifos:
	.quad	iara_runtime_data__edge_infos+10400
	.size	iara_runtime_data_node_4011309_input_fifos, 8

	.type	iara_runtime_data_node_113_output_fifos,@object # @iara_runtime_data_node_113_output_fifos
	.globl	iara_runtime_data_node_113_output_fifos
	.p2align	3, 0x0
iara_runtime_data_node_113_output_fifos:
	.quad	iara_runtime_data__edge_infos+11680
	.quad	iara_runtime_data__edge_infos+11520
	.quad	iara_runtime_data__edge_infos+11360
	.quad	iara_runtime_data__edge_infos+11200
	.quad	iara_runtime_data__edge_infos+11040
	.quad	iara_runtime_data__edge_infos+10880
	.quad	iara_runtime_data__edge_infos+10720
	.quad	iara_runtime_data__edge_infos+10560
	.quad	iara_runtime_data__edge_infos+10400
	.quad	iara_runtime_data__edge_infos+36800
	.quad	iara_runtime_data__edge_infos+36640
	.size	iara_runtime_data_node_113_output_fifos, 88

	.type	iara_runtime_data_node_113_input_fifos,@object # @iara_runtime_data_node_113_input_fifos
	.globl	iara_runtime_data_node_113_input_fifos
	.p2align	3, 0x0
iara_runtime_data_node_113_input_fifos:
	.quad	iara_runtime_data__edge_infos+38560
	.quad	iara_runtime_data__edge_infos+38720
	.quad	iara_runtime_data__edge_infos+38880
	.quad	iara_runtime_data__edge_infos+39040
	.quad	iara_runtime_data__edge_infos+39200
	.quad	iara_runtime_data__edge_infos+39360
	.quad	iara_runtime_data__edge_infos+39520
	.quad	iara_runtime_data__edge_infos+39680
	.quad	iara_runtime_data__edge_infos+39840
	.quad	iara_runtime_data__edge_infos+10080
	.quad	iara_runtime_data__edge_infos+10240
	.size	iara_runtime_data_node_113_input_fifos, 88

	.type	iara_runtime_data_node_30113010_output_fifos,@object # @iara_runtime_data_node_30113010_output_fifos
	.globl	iara_runtime_data_node_30113010_output_fifos
	.p2align	3, 0x0
iara_runtime_data_node_30113010_output_fifos:
	.quad	iara_runtime_data__edge_infos+10240
	.size	iara_runtime_data_node_30113010_output_fifos, 8

	.type	iara_runtime_data_node_30113010_input_fifos,@object # @iara_runtime_data_node_30113010_input_fifos
	.bss
	.globl	iara_runtime_data_node_30113010_input_fifos
	.p2align	3, 0x0
iara_runtime_data_node_30113010_input_fifos:
	.size	iara_runtime_data_node_30113010_input_fifos, 0

	.type	iara_runtime_data_node_3011309_output_fifos,@object # @iara_runtime_data_node_3011309_output_fifos
	.data
	.globl	iara_runtime_data_node_3011309_output_fifos
	.p2align	3, 0x0
iara_runtime_data_node_3011309_output_fifos:
	.quad	iara_runtime_data__edge_infos+10080
	.size	iara_runtime_data_node_3011309_output_fifos, 8

	.type	iara_runtime_data_node_3011309_input_fifos,@object # @iara_runtime_data_node_3011309_input_fifos
	.bss
	.globl	iara_runtime_data_node_3011309_input_fifos
	.p2align	3, 0x0
iara_runtime_data_node_3011309_input_fifos:
	.size	iara_runtime_data_node_3011309_input_fifos, 0

	.type	iara_runtime_data_node_112_output_fifos,@object # @iara_runtime_data_node_112_output_fifos
	.data
	.globl	iara_runtime_data_node_112_output_fifos
	.p2align	3, 0x0
iara_runtime_data_node_112_output_fifos:
	.quad	iara_runtime_data__edge_infos+37120
	.quad	iara_runtime_data__edge_infos+37280
	.quad	iara_runtime_data__edge_infos+37440
	.quad	iara_runtime_data__edge_infos+37600
	.quad	iara_runtime_data__edge_infos+37760
	.quad	iara_runtime_data__edge_infos+37920
	.quad	iara_runtime_data__edge_infos+38080
	.quad	iara_runtime_data__edge_infos+38240
	.size	iara_runtime_data_node_112_output_fifos, 64

	.type	iara_runtime_data_node_112_input_fifos,@object # @iara_runtime_data_node_112_input_fifos
	.globl	iara_runtime_data_node_112_input_fifos
	.p2align	3, 0x0
iara_runtime_data_node_112_input_fifos:
	.quad	iara_runtime_data__edge_infos+8800
	.quad	iara_runtime_data__edge_infos+8960
	.quad	iara_runtime_data__edge_infos+9120
	.quad	iara_runtime_data__edge_infos+9280
	.quad	iara_runtime_data__edge_infos+9440
	.quad	iara_runtime_data__edge_infos+9600
	.quad	iara_runtime_data__edge_infos+9760
	.quad	iara_runtime_data__edge_infos+9920
	.size	iara_runtime_data_node_112_input_fifos, 64

	.type	iara_runtime_data_node_3011207_output_fifos,@object # @iara_runtime_data_node_3011207_output_fifos
	.globl	iara_runtime_data_node_3011207_output_fifos
	.p2align	3, 0x0
iara_runtime_data_node_3011207_output_fifos:
	.quad	iara_runtime_data__edge_infos+9920
	.size	iara_runtime_data_node_3011207_output_fifos, 8

	.type	iara_runtime_data_node_3011207_input_fifos,@object # @iara_runtime_data_node_3011207_input_fifos
	.bss
	.globl	iara_runtime_data_node_3011207_input_fifos
	.p2align	3, 0x0
iara_runtime_data_node_3011207_input_fifos:
	.size	iara_runtime_data_node_3011207_input_fifos, 0

	.type	iara_runtime_data_node_3011206_output_fifos,@object # @iara_runtime_data_node_3011206_output_fifos
	.data
	.globl	iara_runtime_data_node_3011206_output_fifos
	.p2align	3, 0x0
iara_runtime_data_node_3011206_output_fifos:
	.quad	iara_runtime_data__edge_infos+9760
	.size	iara_runtime_data_node_3011206_output_fifos, 8

	.type	iara_runtime_data_node_3011206_input_fifos,@object # @iara_runtime_data_node_3011206_input_fifos
	.bss
	.globl	iara_runtime_data_node_3011206_input_fifos
	.p2align	3, 0x0
iara_runtime_data_node_3011206_input_fifos:
	.size	iara_runtime_data_node_3011206_input_fifos, 0

	.type	iara_runtime_data_node_3011205_output_fifos,@object # @iara_runtime_data_node_3011205_output_fifos
	.data
	.globl	iara_runtime_data_node_3011205_output_fifos
	.p2align	3, 0x0
iara_runtime_data_node_3011205_output_fifos:
	.quad	iara_runtime_data__edge_infos+9600
	.size	iara_runtime_data_node_3011205_output_fifos, 8

	.type	iara_runtime_data_node_3011205_input_fifos,@object # @iara_runtime_data_node_3011205_input_fifos
	.bss
	.globl	iara_runtime_data_node_3011205_input_fifos
	.p2align	3, 0x0
iara_runtime_data_node_3011205_input_fifos:
	.size	iara_runtime_data_node_3011205_input_fifos, 0

	.type	iara_runtime_data_node_3011204_output_fifos,@object # @iara_runtime_data_node_3011204_output_fifos
	.data
	.globl	iara_runtime_data_node_3011204_output_fifos
	.p2align	3, 0x0
iara_runtime_data_node_3011204_output_fifos:
	.quad	iara_runtime_data__edge_infos+9440
	.size	iara_runtime_data_node_3011204_output_fifos, 8

	.type	iara_runtime_data_node_3011204_input_fifos,@object # @iara_runtime_data_node_3011204_input_fifos
	.bss
	.globl	iara_runtime_data_node_3011204_input_fifos
	.p2align	3, 0x0
iara_runtime_data_node_3011204_input_fifos:
	.size	iara_runtime_data_node_3011204_input_fifos, 0

	.type	iara_runtime_data_node_3011203_output_fifos,@object # @iara_runtime_data_node_3011203_output_fifos
	.data
	.globl	iara_runtime_data_node_3011203_output_fifos
	.p2align	3, 0x0
iara_runtime_data_node_3011203_output_fifos:
	.quad	iara_runtime_data__edge_infos+9280
	.size	iara_runtime_data_node_3011203_output_fifos, 8

	.type	iara_runtime_data_node_3011203_input_fifos,@object # @iara_runtime_data_node_3011203_input_fifos
	.bss
	.globl	iara_runtime_data_node_3011203_input_fifos
	.p2align	3, 0x0
iara_runtime_data_node_3011203_input_fifos:
	.size	iara_runtime_data_node_3011203_input_fifos, 0

	.type	iara_runtime_data_node_3011202_output_fifos,@object # @iara_runtime_data_node_3011202_output_fifos
	.data
	.globl	iara_runtime_data_node_3011202_output_fifos
	.p2align	3, 0x0
iara_runtime_data_node_3011202_output_fifos:
	.quad	iara_runtime_data__edge_infos+9120
	.size	iara_runtime_data_node_3011202_output_fifos, 8

	.type	iara_runtime_data_node_3011202_input_fifos,@object # @iara_runtime_data_node_3011202_input_fifos
	.bss
	.globl	iara_runtime_data_node_3011202_input_fifos
	.p2align	3, 0x0
iara_runtime_data_node_3011202_input_fifos:
	.size	iara_runtime_data_node_3011202_input_fifos, 0

	.type	iara_runtime_data_node_3011201_output_fifos,@object # @iara_runtime_data_node_3011201_output_fifos
	.data
	.globl	iara_runtime_data_node_3011201_output_fifos
	.p2align	3, 0x0
iara_runtime_data_node_3011201_output_fifos:
	.quad	iara_runtime_data__edge_infos+8960
	.size	iara_runtime_data_node_3011201_output_fifos, 8

	.type	iara_runtime_data_node_3011201_input_fifos,@object # @iara_runtime_data_node_3011201_input_fifos
	.bss
	.globl	iara_runtime_data_node_3011201_input_fifos
	.p2align	3, 0x0
iara_runtime_data_node_3011201_input_fifos:
	.size	iara_runtime_data_node_3011201_input_fifos, 0

	.type	iara_runtime_data_node_3011200_output_fifos,@object # @iara_runtime_data_node_3011200_output_fifos
	.data
	.globl	iara_runtime_data_node_3011200_output_fifos
	.p2align	3, 0x0
iara_runtime_data_node_3011200_output_fifos:
	.quad	iara_runtime_data__edge_infos+8800
	.size	iara_runtime_data_node_3011200_output_fifos, 8

	.type	iara_runtime_data_node_3011200_input_fifos,@object # @iara_runtime_data_node_3011200_input_fifos
	.bss
	.globl	iara_runtime_data_node_3011200_input_fifos
	.p2align	3, 0x0
iara_runtime_data_node_3011200_input_fifos:
	.size	iara_runtime_data_node_3011200_input_fifos, 0

	.type	iara_runtime_data_node_4011101_output_fifos,@object # @iara_runtime_data_node_4011101_output_fifos
	.globl	iara_runtime_data_node_4011101_output_fifos
	.p2align	3, 0x0
iara_runtime_data_node_4011101_output_fifos:
	.size	iara_runtime_data_node_4011101_output_fifos, 0

	.type	iara_runtime_data_node_4011101_input_fifos,@object # @iara_runtime_data_node_4011101_input_fifos
	.data
	.globl	iara_runtime_data_node_4011101_input_fifos
	.p2align	3, 0x0
iara_runtime_data_node_4011101_input_fifos:
	.quad	iara_runtime_data__edge_infos+8640
	.size	iara_runtime_data_node_4011101_input_fifos, 8

	.type	iara_runtime_data_node_4011102_output_fifos,@object # @iara_runtime_data_node_4011102_output_fifos
	.bss
	.globl	iara_runtime_data_node_4011102_output_fifos
	.p2align	3, 0x0
iara_runtime_data_node_4011102_output_fifos:
	.size	iara_runtime_data_node_4011102_output_fifos, 0

	.type	iara_runtime_data_node_4011102_input_fifos,@object # @iara_runtime_data_node_4011102_input_fifos
	.data
	.globl	iara_runtime_data_node_4011102_input_fifos
	.p2align	3, 0x0
iara_runtime_data_node_4011102_input_fifos:
	.quad	iara_runtime_data__edge_infos+8480
	.size	iara_runtime_data_node_4011102_input_fifos, 8

	.type	iara_runtime_data_node_4011103_output_fifos,@object # @iara_runtime_data_node_4011103_output_fifos
	.bss
	.globl	iara_runtime_data_node_4011103_output_fifos
	.p2align	3, 0x0
iara_runtime_data_node_4011103_output_fifos:
	.size	iara_runtime_data_node_4011103_output_fifos, 0

	.type	iara_runtime_data_node_4011103_input_fifos,@object # @iara_runtime_data_node_4011103_input_fifos
	.data
	.globl	iara_runtime_data_node_4011103_input_fifos
	.p2align	3, 0x0
iara_runtime_data_node_4011103_input_fifos:
	.quad	iara_runtime_data__edge_infos+8320
	.size	iara_runtime_data_node_4011103_input_fifos, 8

	.type	iara_runtime_data_node_4011104_output_fifos,@object # @iara_runtime_data_node_4011104_output_fifos
	.bss
	.globl	iara_runtime_data_node_4011104_output_fifos
	.p2align	3, 0x0
iara_runtime_data_node_4011104_output_fifos:
	.size	iara_runtime_data_node_4011104_output_fifos, 0

	.type	iara_runtime_data_node_4011104_input_fifos,@object # @iara_runtime_data_node_4011104_input_fifos
	.data
	.globl	iara_runtime_data_node_4011104_input_fifos
	.p2align	3, 0x0
iara_runtime_data_node_4011104_input_fifos:
	.quad	iara_runtime_data__edge_infos+8160
	.size	iara_runtime_data_node_4011104_input_fifos, 8

	.type	iara_runtime_data_node_4011105_output_fifos,@object # @iara_runtime_data_node_4011105_output_fifos
	.bss
	.globl	iara_runtime_data_node_4011105_output_fifos
	.p2align	3, 0x0
iara_runtime_data_node_4011105_output_fifos:
	.size	iara_runtime_data_node_4011105_output_fifos, 0

	.type	iara_runtime_data_node_4011105_input_fifos,@object # @iara_runtime_data_node_4011105_input_fifos
	.data
	.globl	iara_runtime_data_node_4011105_input_fifos
	.p2align	3, 0x0
iara_runtime_data_node_4011105_input_fifos:
	.quad	iara_runtime_data__edge_infos+8000
	.size	iara_runtime_data_node_4011105_input_fifos, 8

	.type	iara_runtime_data_node_4011106_output_fifos,@object # @iara_runtime_data_node_4011106_output_fifos
	.bss
	.globl	iara_runtime_data_node_4011106_output_fifos
	.p2align	3, 0x0
iara_runtime_data_node_4011106_output_fifos:
	.size	iara_runtime_data_node_4011106_output_fifos, 0

	.type	iara_runtime_data_node_4011106_input_fifos,@object # @iara_runtime_data_node_4011106_input_fifos
	.data
	.globl	iara_runtime_data_node_4011106_input_fifos
	.p2align	3, 0x0
iara_runtime_data_node_4011106_input_fifos:
	.quad	iara_runtime_data__edge_infos+7840
	.size	iara_runtime_data_node_4011106_input_fifos, 8

	.type	iara_runtime_data_node_4011107_output_fifos,@object # @iara_runtime_data_node_4011107_output_fifos
	.bss
	.globl	iara_runtime_data_node_4011107_output_fifos
	.p2align	3, 0x0
iara_runtime_data_node_4011107_output_fifos:
	.size	iara_runtime_data_node_4011107_output_fifos, 0

	.type	iara_runtime_data_node_4011107_input_fifos,@object # @iara_runtime_data_node_4011107_input_fifos
	.data
	.globl	iara_runtime_data_node_4011107_input_fifos
	.p2align	3, 0x0
iara_runtime_data_node_4011107_input_fifos:
	.quad	iara_runtime_data__edge_infos+7680
	.size	iara_runtime_data_node_4011107_input_fifos, 8

	.type	iara_runtime_data_node_4011108_output_fifos,@object # @iara_runtime_data_node_4011108_output_fifos
	.bss
	.globl	iara_runtime_data_node_4011108_output_fifos
	.p2align	3, 0x0
iara_runtime_data_node_4011108_output_fifos:
	.size	iara_runtime_data_node_4011108_output_fifos, 0

	.type	iara_runtime_data_node_4011108_input_fifos,@object # @iara_runtime_data_node_4011108_input_fifos
	.data
	.globl	iara_runtime_data_node_4011108_input_fifos
	.p2align	3, 0x0
iara_runtime_data_node_4011108_input_fifos:
	.quad	iara_runtime_data__edge_infos+7520
	.size	iara_runtime_data_node_4011108_input_fifos, 8

	.type	iara_runtime_data_node_4011109_output_fifos,@object # @iara_runtime_data_node_4011109_output_fifos
	.bss
	.globl	iara_runtime_data_node_4011109_output_fifos
	.p2align	3, 0x0
iara_runtime_data_node_4011109_output_fifos:
	.size	iara_runtime_data_node_4011109_output_fifos, 0

	.type	iara_runtime_data_node_4011109_input_fifos,@object # @iara_runtime_data_node_4011109_input_fifos
	.data
	.globl	iara_runtime_data_node_4011109_input_fifos
	.p2align	3, 0x0
iara_runtime_data_node_4011109_input_fifos:
	.quad	iara_runtime_data__edge_infos+7360
	.size	iara_runtime_data_node_4011109_input_fifos, 8

	.type	iara_runtime_data_node_111_output_fifos,@object # @iara_runtime_data_node_111_output_fifos
	.globl	iara_runtime_data_node_111_output_fifos
	.p2align	3, 0x0
iara_runtime_data_node_111_output_fifos:
	.quad	iara_runtime_data__edge_infos+8640
	.quad	iara_runtime_data__edge_infos+8480
	.quad	iara_runtime_data__edge_infos+8320
	.quad	iara_runtime_data__edge_infos+8160
	.quad	iara_runtime_data__edge_infos+8000
	.quad	iara_runtime_data__edge_infos+7840
	.quad	iara_runtime_data__edge_infos+7680
	.quad	iara_runtime_data__edge_infos+7520
	.quad	iara_runtime_data__edge_infos+7360
	.quad	iara_runtime_data__edge_infos+38400
	.size	iara_runtime_data_node_111_output_fifos, 80

	.type	iara_runtime_data_node_111_input_fifos,@object # @iara_runtime_data_node_111_input_fifos
	.globl	iara_runtime_data_node_111_input_fifos
	.p2align	3, 0x0
iara_runtime_data_node_111_input_fifos:
	.quad	iara_runtime_data__edge_infos+36960
	.quad	iara_runtime_data__edge_infos+37120
	.quad	iara_runtime_data__edge_infos+37280
	.quad	iara_runtime_data__edge_infos+37440
	.quad	iara_runtime_data__edge_infos+37600
	.quad	iara_runtime_data__edge_infos+37760
	.quad	iara_runtime_data__edge_infos+37920
	.quad	iara_runtime_data__edge_infos+38080
	.quad	iara_runtime_data__edge_infos+38240
	.quad	iara_runtime_data__edge_infos+7200
	.size	iara_runtime_data_node_111_input_fifos, 80

	.type	iara_runtime_data_node_3011109_output_fifos,@object # @iara_runtime_data_node_3011109_output_fifos
	.globl	iara_runtime_data_node_3011109_output_fifos
	.p2align	3, 0x0
iara_runtime_data_node_3011109_output_fifos:
	.quad	iara_runtime_data__edge_infos+7200
	.size	iara_runtime_data_node_3011109_output_fifos, 8

	.type	iara_runtime_data_node_3011109_input_fifos,@object # @iara_runtime_data_node_3011109_input_fifos
	.bss
	.globl	iara_runtime_data_node_3011109_input_fifos
	.p2align	3, 0x0
iara_runtime_data_node_3011109_input_fifos:
	.size	iara_runtime_data_node_3011109_input_fifos, 0

	.type	iara_runtime_data_node_4011001_output_fifos,@object # @iara_runtime_data_node_4011001_output_fifos
	.globl	iara_runtime_data_node_4011001_output_fifos
	.p2align	3, 0x0
iara_runtime_data_node_4011001_output_fifos:
	.size	iara_runtime_data_node_4011001_output_fifos, 0

	.type	iara_runtime_data_node_4011001_input_fifos,@object # @iara_runtime_data_node_4011001_input_fifos
	.data
	.globl	iara_runtime_data_node_4011001_input_fifos
	.p2align	3, 0x0
iara_runtime_data_node_4011001_input_fifos:
	.quad	iara_runtime_data__edge_infos+7040
	.size	iara_runtime_data_node_4011001_input_fifos, 8

	.type	iara_runtime_data_node_110_output_fifos,@object # @iara_runtime_data_node_110_output_fifos
	.globl	iara_runtime_data_node_110_output_fifos
	.p2align	3, 0x0
iara_runtime_data_node_110_output_fifos:
	.quad	iara_runtime_data__edge_infos+7040
	.quad	iara_runtime_data__edge_infos+34880
	.quad	iara_runtime_data__edge_infos+34400
	.size	iara_runtime_data_node_110_output_fifos, 24

	.type	iara_runtime_data_node_110_input_fifos,@object # @iara_runtime_data_node_110_input_fifos
	.globl	iara_runtime_data_node_110_input_fifos
	.p2align	3, 0x0
iara_runtime_data_node_110_input_fifos:
	.quad	iara_runtime_data__edge_infos+36800
	.quad	iara_runtime_data__edge_infos+6720
	.quad	iara_runtime_data__edge_infos+6880
	.size	iara_runtime_data_node_110_input_fifos, 24

	.type	iara_runtime_data_node_3011002_output_fifos,@object # @iara_runtime_data_node_3011002_output_fifos
	.globl	iara_runtime_data_node_3011002_output_fifos
	.p2align	3, 0x0
iara_runtime_data_node_3011002_output_fifos:
	.quad	iara_runtime_data__edge_infos+6880
	.size	iara_runtime_data_node_3011002_output_fifos, 8

	.type	iara_runtime_data_node_3011002_input_fifos,@object # @iara_runtime_data_node_3011002_input_fifos
	.bss
	.globl	iara_runtime_data_node_3011002_input_fifos
	.p2align	3, 0x0
iara_runtime_data_node_3011002_input_fifos:
	.size	iara_runtime_data_node_3011002_input_fifos, 0

	.type	iara_runtime_data_node_3011001_output_fifos,@object # @iara_runtime_data_node_3011001_output_fifos
	.data
	.globl	iara_runtime_data_node_3011001_output_fifos
	.p2align	3, 0x0
iara_runtime_data_node_3011001_output_fifos:
	.quad	iara_runtime_data__edge_infos+6720
	.size	iara_runtime_data_node_3011001_output_fifos, 8

	.type	iara_runtime_data_node_3011001_input_fifos,@object # @iara_runtime_data_node_3011001_input_fifos
	.bss
	.globl	iara_runtime_data_node_3011001_input_fifos
	.p2align	3, 0x0
iara_runtime_data_node_3011001_input_fifos:
	.size	iara_runtime_data_node_3011001_input_fifos, 0

	.type	iara_runtime_data_node_4010901_output_fifos,@object # @iara_runtime_data_node_4010901_output_fifos
	.globl	iara_runtime_data_node_4010901_output_fifos
	.p2align	3, 0x0
iara_runtime_data_node_4010901_output_fifos:
	.size	iara_runtime_data_node_4010901_output_fifos, 0

	.type	iara_runtime_data_node_4010901_input_fifos,@object # @iara_runtime_data_node_4010901_input_fifos
	.data
	.globl	iara_runtime_data_node_4010901_input_fifos
	.p2align	3, 0x0
iara_runtime_data_node_4010901_input_fifos:
	.quad	iara_runtime_data__edge_infos+6560
	.size	iara_runtime_data_node_4010901_input_fifos, 8

	.type	iara_runtime_data_node_109_output_fifos,@object # @iara_runtime_data_node_109_output_fifos
	.globl	iara_runtime_data_node_109_output_fifos
	.p2align	3, 0x0
iara_runtime_data_node_109_output_fifos:
	.quad	iara_runtime_data__edge_infos+6560
	.quad	iara_runtime_data__edge_infos+35040
	.quad	iara_runtime_data__edge_infos+34560
	.size	iara_runtime_data_node_109_output_fifos, 24

	.type	iara_runtime_data_node_109_input_fifos,@object # @iara_runtime_data_node_109_input_fifos
	.globl	iara_runtime_data_node_109_input_fifos
	.p2align	3, 0x0
iara_runtime_data_node_109_input_fifos:
	.quad	iara_runtime_data__edge_infos+36640
	.quad	iara_runtime_data__edge_infos+6240
	.quad	iara_runtime_data__edge_infos+6400
	.size	iara_runtime_data_node_109_input_fifos, 24

	.type	iara_runtime_data_node_3010902_output_fifos,@object # @iara_runtime_data_node_3010902_output_fifos
	.globl	iara_runtime_data_node_3010902_output_fifos
	.p2align	3, 0x0
iara_runtime_data_node_3010902_output_fifos:
	.quad	iara_runtime_data__edge_infos+6400
	.size	iara_runtime_data_node_3010902_output_fifos, 8

	.type	iara_runtime_data_node_3010902_input_fifos,@object # @iara_runtime_data_node_3010902_input_fifos
	.bss
	.globl	iara_runtime_data_node_3010902_input_fifos
	.p2align	3, 0x0
iara_runtime_data_node_3010902_input_fifos:
	.size	iara_runtime_data_node_3010902_input_fifos, 0

	.type	iara_runtime_data_node_3010901_output_fifos,@object # @iara_runtime_data_node_3010901_output_fifos
	.data
	.globl	iara_runtime_data_node_3010901_output_fifos
	.p2align	3, 0x0
iara_runtime_data_node_3010901_output_fifos:
	.quad	iara_runtime_data__edge_infos+6240
	.size	iara_runtime_data_node_3010901_output_fifos, 8

	.type	iara_runtime_data_node_3010901_input_fifos,@object # @iara_runtime_data_node_3010901_input_fifos
	.bss
	.globl	iara_runtime_data_node_3010901_input_fifos
	.p2align	3, 0x0
iara_runtime_data_node_3010901_input_fifos:
	.size	iara_runtime_data_node_3010901_input_fifos, 0

	.type	iara_runtime_data_node_108_output_fifos,@object # @iara_runtime_data_node_108_output_fifos
	.data
	.globl	iara_runtime_data_node_108_output_fifos
	.p2align	3, 0x0
iara_runtime_data_node_108_output_fifos:
	.quad	iara_runtime_data__edge_infos+35360
	.quad	iara_runtime_data__edge_infos+35520
	.quad	iara_runtime_data__edge_infos+35680
	.quad	iara_runtime_data__edge_infos+35840
	.quad	iara_runtime_data__edge_infos+36000
	.quad	iara_runtime_data__edge_infos+36160
	.quad	iara_runtime_data__edge_infos+36320
	.quad	iara_runtime_data__edge_infos+36480
	.size	iara_runtime_data_node_108_output_fifos, 64

	.type	iara_runtime_data_node_108_input_fifos,@object # @iara_runtime_data_node_108_input_fifos
	.globl	iara_runtime_data_node_108_input_fifos
	.p2align	3, 0x0
iara_runtime_data_node_108_input_fifos:
	.quad	iara_runtime_data__edge_infos+4960
	.quad	iara_runtime_data__edge_infos+5120
	.quad	iara_runtime_data__edge_infos+5280
	.quad	iara_runtime_data__edge_infos+5440
	.quad	iara_runtime_data__edge_infos+5600
	.quad	iara_runtime_data__edge_infos+5760
	.quad	iara_runtime_data__edge_infos+5920
	.quad	iara_runtime_data__edge_infos+6080
	.size	iara_runtime_data_node_108_input_fifos, 64

	.type	iara_runtime_data_node_3010807_output_fifos,@object # @iara_runtime_data_node_3010807_output_fifos
	.globl	iara_runtime_data_node_3010807_output_fifos
	.p2align	3, 0x0
iara_runtime_data_node_3010807_output_fifos:
	.quad	iara_runtime_data__edge_infos+6080
	.size	iara_runtime_data_node_3010807_output_fifos, 8

	.type	iara_runtime_data_node_3010807_input_fifos,@object # @iara_runtime_data_node_3010807_input_fifos
	.bss
	.globl	iara_runtime_data_node_3010807_input_fifos
	.p2align	3, 0x0
iara_runtime_data_node_3010807_input_fifos:
	.size	iara_runtime_data_node_3010807_input_fifos, 0

	.type	iara_runtime_data_node_3010806_output_fifos,@object # @iara_runtime_data_node_3010806_output_fifos
	.data
	.globl	iara_runtime_data_node_3010806_output_fifos
	.p2align	3, 0x0
iara_runtime_data_node_3010806_output_fifos:
	.quad	iara_runtime_data__edge_infos+5920
	.size	iara_runtime_data_node_3010806_output_fifos, 8

	.type	iara_runtime_data_node_3010806_input_fifos,@object # @iara_runtime_data_node_3010806_input_fifos
	.bss
	.globl	iara_runtime_data_node_3010806_input_fifos
	.p2align	3, 0x0
iara_runtime_data_node_3010806_input_fifos:
	.size	iara_runtime_data_node_3010806_input_fifos, 0

	.type	iara_runtime_data_node_3010805_output_fifos,@object # @iara_runtime_data_node_3010805_output_fifos
	.data
	.globl	iara_runtime_data_node_3010805_output_fifos
	.p2align	3, 0x0
iara_runtime_data_node_3010805_output_fifos:
	.quad	iara_runtime_data__edge_infos+5760
	.size	iara_runtime_data_node_3010805_output_fifos, 8

	.type	iara_runtime_data_node_3010805_input_fifos,@object # @iara_runtime_data_node_3010805_input_fifos
	.bss
	.globl	iara_runtime_data_node_3010805_input_fifos
	.p2align	3, 0x0
iara_runtime_data_node_3010805_input_fifos:
	.size	iara_runtime_data_node_3010805_input_fifos, 0

	.type	iara_runtime_data_node_3010804_output_fifos,@object # @iara_runtime_data_node_3010804_output_fifos
	.data
	.globl	iara_runtime_data_node_3010804_output_fifos
	.p2align	3, 0x0
iara_runtime_data_node_3010804_output_fifos:
	.quad	iara_runtime_data__edge_infos+5600
	.size	iara_runtime_data_node_3010804_output_fifos, 8

	.type	iara_runtime_data_node_3010804_input_fifos,@object # @iara_runtime_data_node_3010804_input_fifos
	.bss
	.globl	iara_runtime_data_node_3010804_input_fifos
	.p2align	3, 0x0
iara_runtime_data_node_3010804_input_fifos:
	.size	iara_runtime_data_node_3010804_input_fifos, 0

	.type	iara_runtime_data_node_3010803_output_fifos,@object # @iara_runtime_data_node_3010803_output_fifos
	.data
	.globl	iara_runtime_data_node_3010803_output_fifos
	.p2align	3, 0x0
iara_runtime_data_node_3010803_output_fifos:
	.quad	iara_runtime_data__edge_infos+5440
	.size	iara_runtime_data_node_3010803_output_fifos, 8

	.type	iara_runtime_data_node_3010803_input_fifos,@object # @iara_runtime_data_node_3010803_input_fifos
	.bss
	.globl	iara_runtime_data_node_3010803_input_fifos
	.p2align	3, 0x0
iara_runtime_data_node_3010803_input_fifos:
	.size	iara_runtime_data_node_3010803_input_fifos, 0

	.type	iara_runtime_data_node_3010802_output_fifos,@object # @iara_runtime_data_node_3010802_output_fifos
	.data
	.globl	iara_runtime_data_node_3010802_output_fifos
	.p2align	3, 0x0
iara_runtime_data_node_3010802_output_fifos:
	.quad	iara_runtime_data__edge_infos+5280
	.size	iara_runtime_data_node_3010802_output_fifos, 8

	.type	iara_runtime_data_node_3010802_input_fifos,@object # @iara_runtime_data_node_3010802_input_fifos
	.bss
	.globl	iara_runtime_data_node_3010802_input_fifos
	.p2align	3, 0x0
iara_runtime_data_node_3010802_input_fifos:
	.size	iara_runtime_data_node_3010802_input_fifos, 0

	.type	iara_runtime_data_node_3010801_output_fifos,@object # @iara_runtime_data_node_3010801_output_fifos
	.data
	.globl	iara_runtime_data_node_3010801_output_fifos
	.p2align	3, 0x0
iara_runtime_data_node_3010801_output_fifos:
	.quad	iara_runtime_data__edge_infos+5120
	.size	iara_runtime_data_node_3010801_output_fifos, 8

	.type	iara_runtime_data_node_3010801_input_fifos,@object # @iara_runtime_data_node_3010801_input_fifos
	.bss
	.globl	iara_runtime_data_node_3010801_input_fifos
	.p2align	3, 0x0
iara_runtime_data_node_3010801_input_fifos:
	.size	iara_runtime_data_node_3010801_input_fifos, 0

	.type	iara_runtime_data_node_3010800_output_fifos,@object # @iara_runtime_data_node_3010800_output_fifos
	.data
	.globl	iara_runtime_data_node_3010800_output_fifos
	.p2align	3, 0x0
iara_runtime_data_node_3010800_output_fifos:
	.quad	iara_runtime_data__edge_infos+4960
	.size	iara_runtime_data_node_3010800_output_fifos, 8

	.type	iara_runtime_data_node_3010800_input_fifos,@object # @iara_runtime_data_node_3010800_input_fifos
	.bss
	.globl	iara_runtime_data_node_3010800_input_fifos
	.p2align	3, 0x0
iara_runtime_data_node_3010800_input_fifos:
	.size	iara_runtime_data_node_3010800_input_fifos, 0

	.type	iara_runtime_data_node_4010701_output_fifos,@object # @iara_runtime_data_node_4010701_output_fifos
	.globl	iara_runtime_data_node_4010701_output_fifos
	.p2align	3, 0x0
iara_runtime_data_node_4010701_output_fifos:
	.size	iara_runtime_data_node_4010701_output_fifos, 0

	.type	iara_runtime_data_node_4010701_input_fifos,@object # @iara_runtime_data_node_4010701_input_fifos
	.data
	.globl	iara_runtime_data_node_4010701_input_fifos
	.p2align	3, 0x0
iara_runtime_data_node_4010701_input_fifos:
	.quad	iara_runtime_data__edge_infos+4800
	.size	iara_runtime_data_node_4010701_input_fifos, 8

	.type	iara_runtime_data_node_4010702_output_fifos,@object # @iara_runtime_data_node_4010702_output_fifos
	.bss
	.globl	iara_runtime_data_node_4010702_output_fifos
	.p2align	3, 0x0
iara_runtime_data_node_4010702_output_fifos:
	.size	iara_runtime_data_node_4010702_output_fifos, 0

	.type	iara_runtime_data_node_4010702_input_fifos,@object # @iara_runtime_data_node_4010702_input_fifos
	.data
	.globl	iara_runtime_data_node_4010702_input_fifos
	.p2align	3, 0x0
iara_runtime_data_node_4010702_input_fifos:
	.quad	iara_runtime_data__edge_infos+4640
	.size	iara_runtime_data_node_4010702_input_fifos, 8

	.type	iara_runtime_data_node_4010703_output_fifos,@object # @iara_runtime_data_node_4010703_output_fifos
	.bss
	.globl	iara_runtime_data_node_4010703_output_fifos
	.p2align	3, 0x0
iara_runtime_data_node_4010703_output_fifos:
	.size	iara_runtime_data_node_4010703_output_fifos, 0

	.type	iara_runtime_data_node_4010703_input_fifos,@object # @iara_runtime_data_node_4010703_input_fifos
	.data
	.globl	iara_runtime_data_node_4010703_input_fifos
	.p2align	3, 0x0
iara_runtime_data_node_4010703_input_fifos:
	.quad	iara_runtime_data__edge_infos+4480
	.size	iara_runtime_data_node_4010703_input_fifos, 8

	.type	iara_runtime_data_node_4010704_output_fifos,@object # @iara_runtime_data_node_4010704_output_fifos
	.bss
	.globl	iara_runtime_data_node_4010704_output_fifos
	.p2align	3, 0x0
iara_runtime_data_node_4010704_output_fifos:
	.size	iara_runtime_data_node_4010704_output_fifos, 0

	.type	iara_runtime_data_node_4010704_input_fifos,@object # @iara_runtime_data_node_4010704_input_fifos
	.data
	.globl	iara_runtime_data_node_4010704_input_fifos
	.p2align	3, 0x0
iara_runtime_data_node_4010704_input_fifos:
	.quad	iara_runtime_data__edge_infos+4320
	.size	iara_runtime_data_node_4010704_input_fifos, 8

	.type	iara_runtime_data_node_4010705_output_fifos,@object # @iara_runtime_data_node_4010705_output_fifos
	.bss
	.globl	iara_runtime_data_node_4010705_output_fifos
	.p2align	3, 0x0
iara_runtime_data_node_4010705_output_fifos:
	.size	iara_runtime_data_node_4010705_output_fifos, 0

	.type	iara_runtime_data_node_4010705_input_fifos,@object # @iara_runtime_data_node_4010705_input_fifos
	.data
	.globl	iara_runtime_data_node_4010705_input_fifos
	.p2align	3, 0x0
iara_runtime_data_node_4010705_input_fifos:
	.quad	iara_runtime_data__edge_infos+4160
	.size	iara_runtime_data_node_4010705_input_fifos, 8

	.type	iara_runtime_data_node_4010706_output_fifos,@object # @iara_runtime_data_node_4010706_output_fifos
	.bss
	.globl	iara_runtime_data_node_4010706_output_fifos
	.p2align	3, 0x0
iara_runtime_data_node_4010706_output_fifos:
	.size	iara_runtime_data_node_4010706_output_fifos, 0

	.type	iara_runtime_data_node_4010706_input_fifos,@object # @iara_runtime_data_node_4010706_input_fifos
	.data
	.globl	iara_runtime_data_node_4010706_input_fifos
	.p2align	3, 0x0
iara_runtime_data_node_4010706_input_fifos:
	.quad	iara_runtime_data__edge_infos+4000
	.size	iara_runtime_data_node_4010706_input_fifos, 8

	.type	iara_runtime_data_node_4010707_output_fifos,@object # @iara_runtime_data_node_4010707_output_fifos
	.bss
	.globl	iara_runtime_data_node_4010707_output_fifos
	.p2align	3, 0x0
iara_runtime_data_node_4010707_output_fifos:
	.size	iara_runtime_data_node_4010707_output_fifos, 0

	.type	iara_runtime_data_node_4010707_input_fifos,@object # @iara_runtime_data_node_4010707_input_fifos
	.data
	.globl	iara_runtime_data_node_4010707_input_fifos
	.p2align	3, 0x0
iara_runtime_data_node_4010707_input_fifos:
	.quad	iara_runtime_data__edge_infos+3840
	.size	iara_runtime_data_node_4010707_input_fifos, 8

	.type	iara_runtime_data_node_4010708_output_fifos,@object # @iara_runtime_data_node_4010708_output_fifos
	.bss
	.globl	iara_runtime_data_node_4010708_output_fifos
	.p2align	3, 0x0
iara_runtime_data_node_4010708_output_fifos:
	.size	iara_runtime_data_node_4010708_output_fifos, 0

	.type	iara_runtime_data_node_4010708_input_fifos,@object # @iara_runtime_data_node_4010708_input_fifos
	.data
	.globl	iara_runtime_data_node_4010708_input_fifos
	.p2align	3, 0x0
iara_runtime_data_node_4010708_input_fifos:
	.quad	iara_runtime_data__edge_infos+3680
	.size	iara_runtime_data_node_4010708_input_fifos, 8

	.type	iara_runtime_data_node_4010709_output_fifos,@object # @iara_runtime_data_node_4010709_output_fifos
	.bss
	.globl	iara_runtime_data_node_4010709_output_fifos
	.p2align	3, 0x0
iara_runtime_data_node_4010709_output_fifos:
	.size	iara_runtime_data_node_4010709_output_fifos, 0

	.type	iara_runtime_data_node_4010709_input_fifos,@object # @iara_runtime_data_node_4010709_input_fifos
	.data
	.globl	iara_runtime_data_node_4010709_input_fifos
	.p2align	3, 0x0
iara_runtime_data_node_4010709_input_fifos:
	.quad	iara_runtime_data__edge_infos+3520
	.size	iara_runtime_data_node_4010709_input_fifos, 8

	.type	iara_runtime_data_node_40107010_output_fifos,@object # @iara_runtime_data_node_40107010_output_fifos
	.bss
	.globl	iara_runtime_data_node_40107010_output_fifos
	.p2align	3, 0x0
iara_runtime_data_node_40107010_output_fifos:
	.size	iara_runtime_data_node_40107010_output_fifos, 0

	.type	iara_runtime_data_node_40107010_input_fifos,@object # @iara_runtime_data_node_40107010_input_fifos
	.data
	.globl	iara_runtime_data_node_40107010_input_fifos
	.p2align	3, 0x0
iara_runtime_data_node_40107010_input_fifos:
	.quad	iara_runtime_data__edge_infos+3360
	.size	iara_runtime_data_node_40107010_input_fifos, 8

	.type	iara_runtime_data_node_40107011_output_fifos,@object # @iara_runtime_data_node_40107011_output_fifos
	.bss
	.globl	iara_runtime_data_node_40107011_output_fifos
	.p2align	3, 0x0
iara_runtime_data_node_40107011_output_fifos:
	.size	iara_runtime_data_node_40107011_output_fifos, 0

	.type	iara_runtime_data_node_40107011_input_fifos,@object # @iara_runtime_data_node_40107011_input_fifos
	.data
	.globl	iara_runtime_data_node_40107011_input_fifos
	.p2align	3, 0x0
iara_runtime_data_node_40107011_input_fifos:
	.quad	iara_runtime_data__edge_infos+3200
	.size	iara_runtime_data_node_40107011_input_fifos, 8

	.type	iara_runtime_data_node_107_output_fifos,@object # @iara_runtime_data_node_107_output_fifos
	.globl	iara_runtime_data_node_107_output_fifos
	.p2align	3, 0x0
iara_runtime_data_node_107_output_fifos:
	.quad	iara_runtime_data__edge_infos+4800
	.quad	iara_runtime_data__edge_infos+4640
	.quad	iara_runtime_data__edge_infos+4480
	.quad	iara_runtime_data__edge_infos+4320
	.quad	iara_runtime_data__edge_infos+4160
	.quad	iara_runtime_data__edge_infos+4000
	.quad	iara_runtime_data__edge_infos+3840
	.quad	iara_runtime_data__edge_infos+3680
	.quad	iara_runtime_data__edge_infos+3520
	.quad	iara_runtime_data__edge_infos+3360
	.quad	iara_runtime_data__edge_infos+3200
	.quad	iara_runtime_data__edge_infos+34240
	.size	iara_runtime_data_node_107_output_fifos, 96

	.type	iara_runtime_data_node_107_input_fifos,@object # @iara_runtime_data_node_107_input_fifos
	.globl	iara_runtime_data_node_107_input_fifos
	.p2align	3, 0x0
iara_runtime_data_node_107_input_fifos:
	.quad	iara_runtime_data__edge_infos+34880
	.quad	iara_runtime_data__edge_infos+35040
	.quad	iara_runtime_data__edge_infos+35200
	.quad	iara_runtime_data__edge_infos+35360
	.quad	iara_runtime_data__edge_infos+35520
	.quad	iara_runtime_data__edge_infos+35680
	.quad	iara_runtime_data__edge_infos+35840
	.quad	iara_runtime_data__edge_infos+36000
	.quad	iara_runtime_data__edge_infos+36160
	.quad	iara_runtime_data__edge_infos+36320
	.quad	iara_runtime_data__edge_infos+36480
	.quad	iara_runtime_data__edge_infos+3040
	.size	iara_runtime_data_node_107_input_fifos, 96

	.type	iara_runtime_data_node_30107011_output_fifos,@object # @iara_runtime_data_node_30107011_output_fifos
	.globl	iara_runtime_data_node_30107011_output_fifos
	.p2align	3, 0x0
iara_runtime_data_node_30107011_output_fifos:
	.quad	iara_runtime_data__edge_infos+3040
	.size	iara_runtime_data_node_30107011_output_fifos, 8

	.type	iara_runtime_data_node_30107011_input_fifos,@object # @iara_runtime_data_node_30107011_input_fifos
	.bss
	.globl	iara_runtime_data_node_30107011_input_fifos
	.p2align	3, 0x0
iara_runtime_data_node_30107011_input_fifos:
	.size	iara_runtime_data_node_30107011_input_fifos, 0

	.type	iara_runtime_data_node_4010601_output_fifos,@object # @iara_runtime_data_node_4010601_output_fifos
	.globl	iara_runtime_data_node_4010601_output_fifos
	.p2align	3, 0x0
iara_runtime_data_node_4010601_output_fifos:
	.size	iara_runtime_data_node_4010601_output_fifos, 0

	.type	iara_runtime_data_node_4010601_input_fifos,@object # @iara_runtime_data_node_4010601_input_fifos
	.data
	.globl	iara_runtime_data_node_4010601_input_fifos
	.p2align	3, 0x0
iara_runtime_data_node_4010601_input_fifos:
	.quad	iara_runtime_data__edge_infos+2880
	.size	iara_runtime_data_node_4010601_input_fifos, 8

	.type	iara_runtime_data_node_4010602_output_fifos,@object # @iara_runtime_data_node_4010602_output_fifos
	.bss
	.globl	iara_runtime_data_node_4010602_output_fifos
	.p2align	3, 0x0
iara_runtime_data_node_4010602_output_fifos:
	.size	iara_runtime_data_node_4010602_output_fifos, 0

	.type	iara_runtime_data_node_4010602_input_fifos,@object # @iara_runtime_data_node_4010602_input_fifos
	.data
	.globl	iara_runtime_data_node_4010602_input_fifos
	.p2align	3, 0x0
iara_runtime_data_node_4010602_input_fifos:
	.quad	iara_runtime_data__edge_infos+2720
	.size	iara_runtime_data_node_4010602_input_fifos, 8

	.type	iara_runtime_data_node_4010603_output_fifos,@object # @iara_runtime_data_node_4010603_output_fifos
	.bss
	.globl	iara_runtime_data_node_4010603_output_fifos
	.p2align	3, 0x0
iara_runtime_data_node_4010603_output_fifos:
	.size	iara_runtime_data_node_4010603_output_fifos, 0

	.type	iara_runtime_data_node_4010603_input_fifos,@object # @iara_runtime_data_node_4010603_input_fifos
	.data
	.globl	iara_runtime_data_node_4010603_input_fifos
	.p2align	3, 0x0
iara_runtime_data_node_4010603_input_fifos:
	.quad	iara_runtime_data__edge_infos+2560
	.size	iara_runtime_data_node_4010603_input_fifos, 8

	.type	iara_runtime_data_node_106_output_fifos,@object # @iara_runtime_data_node_106_output_fifos
	.globl	iara_runtime_data_node_106_output_fifos
	.p2align	3, 0x0
iara_runtime_data_node_106_output_fifos:
	.quad	iara_runtime_data__edge_infos+2880
	.quad	iara_runtime_data__edge_infos+2720
	.quad	iara_runtime_data__edge_infos+2560
	.quad	iara_runtime_data__edge_infos+34720
	.size	iara_runtime_data_node_106_output_fifos, 32

	.type	iara_runtime_data_node_106_input_fifos,@object # @iara_runtime_data_node_106_input_fifos
	.globl	iara_runtime_data_node_106_input_fifos
	.p2align	3, 0x0
iara_runtime_data_node_106_input_fifos:
	.quad	iara_runtime_data__edge_infos+34240
	.quad	iara_runtime_data__edge_infos+34400
	.quad	iara_runtime_data__edge_infos+34560
	.quad	iara_runtime_data__edge_infos+2400
	.size	iara_runtime_data_node_106_input_fifos, 32

	.type	iara_runtime_data_node_3010603_output_fifos,@object # @iara_runtime_data_node_3010603_output_fifos
	.globl	iara_runtime_data_node_3010603_output_fifos
	.p2align	3, 0x0
iara_runtime_data_node_3010603_output_fifos:
	.quad	iara_runtime_data__edge_infos+2400
	.size	iara_runtime_data_node_3010603_output_fifos, 8

	.type	iara_runtime_data_node_3010603_input_fifos,@object # @iara_runtime_data_node_3010603_input_fifos
	.bss
	.globl	iara_runtime_data_node_3010603_input_fifos
	.p2align	3, 0x0
iara_runtime_data_node_3010603_input_fifos:
	.size	iara_runtime_data_node_3010603_input_fifos, 0

	.type	iara_runtime_data_node_105_output_fifos,@object # @iara_runtime_data_node_105_output_fifos
	.data
	.globl	iara_runtime_data_node_105_output_fifos
	.p2align	3, 0x0
iara_runtime_data_node_105_output_fifos:
	.quad	iara_runtime_data__edge_infos+33920
	.quad	iara_runtime_data__edge_infos+34080
	.size	iara_runtime_data_node_105_output_fifos, 16

	.type	iara_runtime_data_node_105_input_fifos,@object # @iara_runtime_data_node_105_input_fifos
	.globl	iara_runtime_data_node_105_input_fifos
	.p2align	3, 0x0
iara_runtime_data_node_105_input_fifos:
	.quad	iara_runtime_data__edge_infos+2080
	.quad	iara_runtime_data__edge_infos+2240
	.size	iara_runtime_data_node_105_input_fifos, 16

	.type	iara_runtime_data_node_3010501_output_fifos,@object # @iara_runtime_data_node_3010501_output_fifos
	.globl	iara_runtime_data_node_3010501_output_fifos
	.p2align	3, 0x0
iara_runtime_data_node_3010501_output_fifos:
	.quad	iara_runtime_data__edge_infos+2240
	.size	iara_runtime_data_node_3010501_output_fifos, 8

	.type	iara_runtime_data_node_3010501_input_fifos,@object # @iara_runtime_data_node_3010501_input_fifos
	.bss
	.globl	iara_runtime_data_node_3010501_input_fifos
	.p2align	3, 0x0
iara_runtime_data_node_3010501_input_fifos:
	.size	iara_runtime_data_node_3010501_input_fifos, 0

	.type	iara_runtime_data_node_3010500_output_fifos,@object # @iara_runtime_data_node_3010500_output_fifos
	.data
	.globl	iara_runtime_data_node_3010500_output_fifos
	.p2align	3, 0x0
iara_runtime_data_node_3010500_output_fifos:
	.quad	iara_runtime_data__edge_infos+2080
	.size	iara_runtime_data_node_3010500_output_fifos, 8

	.type	iara_runtime_data_node_3010500_input_fifos,@object # @iara_runtime_data_node_3010500_input_fifos
	.bss
	.globl	iara_runtime_data_node_3010500_input_fifos
	.p2align	3, 0x0
iara_runtime_data_node_3010500_input_fifos:
	.size	iara_runtime_data_node_3010500_input_fifos, 0

	.type	iara_runtime_data_node_4010401_output_fifos,@object # @iara_runtime_data_node_4010401_output_fifos
	.globl	iara_runtime_data_node_4010401_output_fifos
	.p2align	3, 0x0
iara_runtime_data_node_4010401_output_fifos:
	.size	iara_runtime_data_node_4010401_output_fifos, 0

	.type	iara_runtime_data_node_4010401_input_fifos,@object # @iara_runtime_data_node_4010401_input_fifos
	.data
	.globl	iara_runtime_data_node_4010401_input_fifos
	.p2align	3, 0x0
iara_runtime_data_node_4010401_input_fifos:
	.quad	iara_runtime_data__edge_infos+1920
	.size	iara_runtime_data_node_4010401_input_fifos, 8

	.type	iara_runtime_data_node_4010402_output_fifos,@object # @iara_runtime_data_node_4010402_output_fifos
	.bss
	.globl	iara_runtime_data_node_4010402_output_fifos
	.p2align	3, 0x0
iara_runtime_data_node_4010402_output_fifos:
	.size	iara_runtime_data_node_4010402_output_fifos, 0

	.type	iara_runtime_data_node_4010402_input_fifos,@object # @iara_runtime_data_node_4010402_input_fifos
	.data
	.globl	iara_runtime_data_node_4010402_input_fifos
	.p2align	3, 0x0
iara_runtime_data_node_4010402_input_fifos:
	.quad	iara_runtime_data__edge_infos+1760
	.size	iara_runtime_data_node_4010402_input_fifos, 8

	.type	iara_runtime_data_node_4010403_output_fifos,@object # @iara_runtime_data_node_4010403_output_fifos
	.bss
	.globl	iara_runtime_data_node_4010403_output_fifos
	.p2align	3, 0x0
iara_runtime_data_node_4010403_output_fifos:
	.size	iara_runtime_data_node_4010403_output_fifos, 0

	.type	iara_runtime_data_node_4010403_input_fifos,@object # @iara_runtime_data_node_4010403_input_fifos
	.data
	.globl	iara_runtime_data_node_4010403_input_fifos
	.p2align	3, 0x0
iara_runtime_data_node_4010403_input_fifos:
	.quad	iara_runtime_data__edge_infos+1600
	.size	iara_runtime_data_node_4010403_input_fifos, 8

	.type	iara_runtime_data_node_4010404_output_fifos,@object # @iara_runtime_data_node_4010404_output_fifos
	.bss
	.globl	iara_runtime_data_node_4010404_output_fifos
	.p2align	3, 0x0
iara_runtime_data_node_4010404_output_fifos:
	.size	iara_runtime_data_node_4010404_output_fifos, 0

	.type	iara_runtime_data_node_4010404_input_fifos,@object # @iara_runtime_data_node_4010404_input_fifos
	.data
	.globl	iara_runtime_data_node_4010404_input_fifos
	.p2align	3, 0x0
iara_runtime_data_node_4010404_input_fifos:
	.quad	iara_runtime_data__edge_infos+1440
	.size	iara_runtime_data_node_4010404_input_fifos, 8

	.type	iara_runtime_data_node_104_output_fifos,@object # @iara_runtime_data_node_104_output_fifos
	.globl	iara_runtime_data_node_104_output_fifos
	.p2align	3, 0x0
iara_runtime_data_node_104_output_fifos:
	.quad	iara_runtime_data__edge_infos+1920
	.quad	iara_runtime_data__edge_infos+1760
	.quad	iara_runtime_data__edge_infos+1600
	.quad	iara_runtime_data__edge_infos+1440
	.size	iara_runtime_data_node_104_output_fifos, 32

	.type	iara_runtime_data_node_104_input_fifos,@object # @iara_runtime_data_node_104_input_fifos
	.globl	iara_runtime_data_node_104_input_fifos
	.p2align	3, 0x0
iara_runtime_data_node_104_input_fifos:
	.quad	iara_runtime_data__edge_infos+50880
	.quad	iara_runtime_data__edge_infos+51040
	.quad	iara_runtime_data__edge_infos+50720
	.quad	iara_runtime_data__edge_infos+50080
	.size	iara_runtime_data_node_104_input_fifos, 32

	.type	iara_runtime_data_node_4010301_output_fifos,@object # @iara_runtime_data_node_4010301_output_fifos
	.bss
	.globl	iara_runtime_data_node_4010301_output_fifos
	.p2align	3, 0x0
